
UART_RX.elf:     file format elf32-avr

Sections:
Idx Name          Size      VMA       LMA       File off  Algn
  0 .text         00002cec  00000000  00000000  00000094  2**1
                  CONTENTS, ALLOC, LOAD, READONLY, CODE
  1 .data         00000132  00800060  00002cec  00002d80  2**0
                  CONTENTS, ALLOC, LOAD, DATA
  2 .bss          00000002  00800192  00800192  00002eb2  2**0
                  ALLOC
  3 .stab         00002268  00000000  00000000  00002eb4  2**2
                  CONTENTS, READONLY, DEBUGGING
  4 .stabstr      00001040  00000000  00000000  0000511c  2**0
                  CONTENTS, READONLY, DEBUGGING
  5 .debug_aranges 00000180  00000000  00000000  0000615c  2**0
                  CONTENTS, READONLY, DEBUGGING
  6 .debug_pubnames 000001d1  00000000  00000000  000062dc  2**0
                  CONTENTS, READONLY, DEBUGGING
  7 .debug_info   00002010  00000000  00000000  000064ad  2**0
                  CONTENTS, READONLY, DEBUGGING
  8 .debug_abbrev 00001161  00000000  00000000  000084bd  2**0
                  CONTENTS, READONLY, DEBUGGING
  9 .debug_line   00001003  00000000  00000000  0000961e  2**0
                  CONTENTS, READONLY, DEBUGGING
 10 .debug_frame  000001a0  00000000  00000000  0000a624  2**2
                  CONTENTS, READONLY, DEBUGGING
 11 .debug_str    000002be  00000000  00000000  0000a7c4  2**0
                  CONTENTS, READONLY, DEBUGGING
 12 .debug_loc    0000090e  00000000  00000000  0000aa82  2**0
                  CONTENTS, READONLY, DEBUGGING
 13 .debug_ranges 00000050  00000000  00000000  0000b390  2**0
                  CONTENTS, READONLY, DEBUGGING

Disassembly of section .text:

00000000 <__vectors>:
       0:	0c 94 2a 00 	jmp	0x54	; 0x54 <__ctors_end>
       4:	0c 94 47 00 	jmp	0x8e	; 0x8e <__bad_interrupt>
       8:	0c 94 47 00 	jmp	0x8e	; 0x8e <__bad_interrupt>
       c:	0c 94 47 00 	jmp	0x8e	; 0x8e <__bad_interrupt>
      10:	0c 94 47 00 	jmp	0x8e	; 0x8e <__bad_interrupt>
      14:	0c 94 47 00 	jmp	0x8e	; 0x8e <__bad_interrupt>
      18:	0c 94 47 00 	jmp	0x8e	; 0x8e <__bad_interrupt>
      1c:	0c 94 47 00 	jmp	0x8e	; 0x8e <__bad_interrupt>
      20:	0c 94 47 00 	jmp	0x8e	; 0x8e <__bad_interrupt>
      24:	0c 94 47 00 	jmp	0x8e	; 0x8e <__bad_interrupt>
      28:	0c 94 e0 12 	jmp	0x25c0	; 0x25c0 <__vector_10>
      2c:	0c 94 47 00 	jmp	0x8e	; 0x8e <__bad_interrupt>
      30:	0c 94 47 00 	jmp	0x8e	; 0x8e <__bad_interrupt>
      34:	0c 94 47 00 	jmp	0x8e	; 0x8e <__bad_interrupt>
      38:	0c 94 47 00 	jmp	0x8e	; 0x8e <__bad_interrupt>
      3c:	0c 94 47 00 	jmp	0x8e	; 0x8e <__bad_interrupt>
      40:	0c 94 47 00 	jmp	0x8e	; 0x8e <__bad_interrupt>
      44:	0c 94 47 00 	jmp	0x8e	; 0x8e <__bad_interrupt>
      48:	0c 94 47 00 	jmp	0x8e	; 0x8e <__bad_interrupt>
      4c:	0c 94 47 00 	jmp	0x8e	; 0x8e <__bad_interrupt>
      50:	0c 94 47 00 	jmp	0x8e	; 0x8e <__bad_interrupt>

00000054 <__ctors_end>:
      54:	11 24       	eor	r1, r1
      56:	1f be       	out	0x3f, r1	; 63
      58:	cf e5       	ldi	r28, 0x5F	; 95
      5a:	d8 e0       	ldi	r29, 0x08	; 8
      5c:	de bf       	out	0x3e, r29	; 62
      5e:	cd bf       	out	0x3d, r28	; 61

00000060 <__do_copy_data>:
      60:	11 e0       	ldi	r17, 0x01	; 1
      62:	a0 e6       	ldi	r26, 0x60	; 96
      64:	b0 e0       	ldi	r27, 0x00	; 0
      66:	ec ee       	ldi	r30, 0xEC	; 236
      68:	fc e2       	ldi	r31, 0x2C	; 44
      6a:	02 c0       	rjmp	.+4      	; 0x70 <.do_copy_data_start>

0000006c <.do_copy_data_loop>:
      6c:	05 90       	lpm	r0, Z+
      6e:	0d 92       	st	X+, r0

00000070 <.do_copy_data_start>:
      70:	a2 39       	cpi	r26, 0x92	; 146
      72:	b1 07       	cpc	r27, r17
      74:	d9 f7       	brne	.-10     	; 0x6c <.do_copy_data_loop>

00000076 <__do_clear_bss>:
      76:	11 e0       	ldi	r17, 0x01	; 1
      78:	a2 e9       	ldi	r26, 0x92	; 146
      7a:	b1 e0       	ldi	r27, 0x01	; 1
      7c:	01 c0       	rjmp	.+2      	; 0x80 <.do_clear_bss_start>

0000007e <.do_clear_bss_loop>:
      7e:	1d 92       	st	X+, r1

00000080 <.do_clear_bss_start>:
      80:	a4 39       	cpi	r26, 0x94	; 148
      82:	b1 07       	cpc	r27, r17
      84:	e1 f7       	brne	.-8      	; 0x7e <.do_clear_bss_loop>
      86:	0e 94 5e 12 	call	0x24bc	; 0x24bc <main>
      8a:	0c 94 74 16 	jmp	0x2ce8	; 0x2ce8 <_exit>

0000008e <__bad_interrupt>:
      8e:	0c 94 00 00 	jmp	0	; 0x0 <__vectors>

00000092 <__fixunssfsi>:
      92:	ef 92       	push	r14
      94:	ff 92       	push	r15
      96:	0f 93       	push	r16
      98:	1f 93       	push	r17
      9a:	7b 01       	movw	r14, r22
      9c:	8c 01       	movw	r16, r24
      9e:	20 e0       	ldi	r18, 0x00	; 0
      a0:	30 e0       	ldi	r19, 0x00	; 0
      a2:	40 e0       	ldi	r20, 0x00	; 0
      a4:	5f e4       	ldi	r21, 0x4F	; 79
      a6:	0e 94 49 03 	call	0x692	; 0x692 <__gesf2>
      aa:	88 23       	and	r24, r24
      ac:	8c f0       	brlt	.+34     	; 0xd0 <__fixunssfsi+0x3e>
      ae:	c8 01       	movw	r24, r16
      b0:	b7 01       	movw	r22, r14
      b2:	20 e0       	ldi	r18, 0x00	; 0
      b4:	30 e0       	ldi	r19, 0x00	; 0
      b6:	40 e0       	ldi	r20, 0x00	; 0
      b8:	5f e4       	ldi	r21, 0x4F	; 79
      ba:	0e 94 c1 01 	call	0x382	; 0x382 <__subsf3>
      be:	0e 94 07 04 	call	0x80e	; 0x80e <__fixsfsi>
      c2:	9b 01       	movw	r18, r22
      c4:	ac 01       	movw	r20, r24
      c6:	20 50       	subi	r18, 0x00	; 0
      c8:	30 40       	sbci	r19, 0x00	; 0
      ca:	40 40       	sbci	r20, 0x00	; 0
      cc:	50 48       	sbci	r21, 0x80	; 128
      ce:	06 c0       	rjmp	.+12     	; 0xdc <__fixunssfsi+0x4a>
      d0:	c8 01       	movw	r24, r16
      d2:	b7 01       	movw	r22, r14
      d4:	0e 94 07 04 	call	0x80e	; 0x80e <__fixsfsi>
      d8:	9b 01       	movw	r18, r22
      da:	ac 01       	movw	r20, r24
      dc:	b9 01       	movw	r22, r18
      de:	ca 01       	movw	r24, r20
      e0:	1f 91       	pop	r17
      e2:	0f 91       	pop	r16
      e4:	ff 90       	pop	r15
      e6:	ef 90       	pop	r14
      e8:	08 95       	ret

000000ea <_fpadd_parts>:
      ea:	a0 e0       	ldi	r26, 0x00	; 0
      ec:	b0 e0       	ldi	r27, 0x00	; 0
      ee:	eb e7       	ldi	r30, 0x7B	; 123
      f0:	f0 e0       	ldi	r31, 0x00	; 0
      f2:	0c 94 9c 13 	jmp	0x2738	; 0x2738 <__prologue_saves__>
      f6:	dc 01       	movw	r26, r24
      f8:	2b 01       	movw	r4, r22
      fa:	fa 01       	movw	r30, r20
      fc:	9c 91       	ld	r25, X
      fe:	92 30       	cpi	r25, 0x02	; 2
     100:	08 f4       	brcc	.+2      	; 0x104 <_fpadd_parts+0x1a>
     102:	39 c1       	rjmp	.+626    	; 0x376 <_fpadd_parts+0x28c>
     104:	eb 01       	movw	r28, r22
     106:	88 81       	ld	r24, Y
     108:	82 30       	cpi	r24, 0x02	; 2
     10a:	08 f4       	brcc	.+2      	; 0x10e <_fpadd_parts+0x24>
     10c:	33 c1       	rjmp	.+614    	; 0x374 <_fpadd_parts+0x28a>
     10e:	94 30       	cpi	r25, 0x04	; 4
     110:	69 f4       	brne	.+26     	; 0x12c <_fpadd_parts+0x42>
     112:	84 30       	cpi	r24, 0x04	; 4
     114:	09 f0       	breq	.+2      	; 0x118 <_fpadd_parts+0x2e>
     116:	2f c1       	rjmp	.+606    	; 0x376 <_fpadd_parts+0x28c>
     118:	11 96       	adiw	r26, 0x01	; 1
     11a:	9c 91       	ld	r25, X
     11c:	11 97       	sbiw	r26, 0x01	; 1
     11e:	89 81       	ldd	r24, Y+1	; 0x01
     120:	98 17       	cp	r25, r24
     122:	09 f4       	brne	.+2      	; 0x126 <_fpadd_parts+0x3c>
     124:	28 c1       	rjmp	.+592    	; 0x376 <_fpadd_parts+0x28c>
     126:	a8 e6       	ldi	r26, 0x68	; 104
     128:	b0 e0       	ldi	r27, 0x00	; 0
     12a:	25 c1       	rjmp	.+586    	; 0x376 <_fpadd_parts+0x28c>
     12c:	84 30       	cpi	r24, 0x04	; 4
     12e:	09 f4       	brne	.+2      	; 0x132 <_fpadd_parts+0x48>
     130:	21 c1       	rjmp	.+578    	; 0x374 <_fpadd_parts+0x28a>
     132:	82 30       	cpi	r24, 0x02	; 2
     134:	a9 f4       	brne	.+42     	; 0x160 <_fpadd_parts+0x76>
     136:	92 30       	cpi	r25, 0x02	; 2
     138:	09 f0       	breq	.+2      	; 0x13c <_fpadd_parts+0x52>
     13a:	1d c1       	rjmp	.+570    	; 0x376 <_fpadd_parts+0x28c>
     13c:	9a 01       	movw	r18, r20
     13e:	ad 01       	movw	r20, r26
     140:	88 e0       	ldi	r24, 0x08	; 8
     142:	ea 01       	movw	r28, r20
     144:	09 90       	ld	r0, Y+
     146:	ae 01       	movw	r20, r28
     148:	e9 01       	movw	r28, r18
     14a:	09 92       	st	Y+, r0
     14c:	9e 01       	movw	r18, r28
     14e:	81 50       	subi	r24, 0x01	; 1
     150:	c1 f7       	brne	.-16     	; 0x142 <_fpadd_parts+0x58>
     152:	e2 01       	movw	r28, r4
     154:	89 81       	ldd	r24, Y+1	; 0x01
     156:	11 96       	adiw	r26, 0x01	; 1
     158:	9c 91       	ld	r25, X
     15a:	89 23       	and	r24, r25
     15c:	81 83       	std	Z+1, r24	; 0x01
     15e:	08 c1       	rjmp	.+528    	; 0x370 <_fpadd_parts+0x286>
     160:	92 30       	cpi	r25, 0x02	; 2
     162:	09 f4       	brne	.+2      	; 0x166 <_fpadd_parts+0x7c>
     164:	07 c1       	rjmp	.+526    	; 0x374 <_fpadd_parts+0x28a>
     166:	12 96       	adiw	r26, 0x02	; 2
     168:	2d 90       	ld	r2, X+
     16a:	3c 90       	ld	r3, X
     16c:	13 97       	sbiw	r26, 0x03	; 3
     16e:	eb 01       	movw	r28, r22
     170:	8a 81       	ldd	r24, Y+2	; 0x02
     172:	9b 81       	ldd	r25, Y+3	; 0x03
     174:	14 96       	adiw	r26, 0x04	; 4
     176:	ad 90       	ld	r10, X+
     178:	bd 90       	ld	r11, X+
     17a:	cd 90       	ld	r12, X+
     17c:	dc 90       	ld	r13, X
     17e:	17 97       	sbiw	r26, 0x07	; 7
     180:	ec 80       	ldd	r14, Y+4	; 0x04
     182:	fd 80       	ldd	r15, Y+5	; 0x05
     184:	0e 81       	ldd	r16, Y+6	; 0x06
     186:	1f 81       	ldd	r17, Y+7	; 0x07
     188:	91 01       	movw	r18, r2
     18a:	28 1b       	sub	r18, r24
     18c:	39 0b       	sbc	r19, r25
     18e:	b9 01       	movw	r22, r18
     190:	37 ff       	sbrs	r19, 7
     192:	04 c0       	rjmp	.+8      	; 0x19c <_fpadd_parts+0xb2>
     194:	66 27       	eor	r22, r22
     196:	77 27       	eor	r23, r23
     198:	62 1b       	sub	r22, r18
     19a:	73 0b       	sbc	r23, r19
     19c:	60 32       	cpi	r22, 0x20	; 32
     19e:	71 05       	cpc	r23, r1
     1a0:	0c f0       	brlt	.+2      	; 0x1a4 <_fpadd_parts+0xba>
     1a2:	61 c0       	rjmp	.+194    	; 0x266 <_fpadd_parts+0x17c>
     1a4:	12 16       	cp	r1, r18
     1a6:	13 06       	cpc	r1, r19
     1a8:	6c f5       	brge	.+90     	; 0x204 <_fpadd_parts+0x11a>
     1aa:	37 01       	movw	r6, r14
     1ac:	48 01       	movw	r8, r16
     1ae:	06 2e       	mov	r0, r22
     1b0:	04 c0       	rjmp	.+8      	; 0x1ba <_fpadd_parts+0xd0>
     1b2:	96 94       	lsr	r9
     1b4:	87 94       	ror	r8
     1b6:	77 94       	ror	r7
     1b8:	67 94       	ror	r6
     1ba:	0a 94       	dec	r0
     1bc:	d2 f7       	brpl	.-12     	; 0x1b2 <_fpadd_parts+0xc8>
     1be:	21 e0       	ldi	r18, 0x01	; 1
     1c0:	30 e0       	ldi	r19, 0x00	; 0
     1c2:	40 e0       	ldi	r20, 0x00	; 0
     1c4:	50 e0       	ldi	r21, 0x00	; 0
     1c6:	04 c0       	rjmp	.+8      	; 0x1d0 <_fpadd_parts+0xe6>
     1c8:	22 0f       	add	r18, r18
     1ca:	33 1f       	adc	r19, r19
     1cc:	44 1f       	adc	r20, r20
     1ce:	55 1f       	adc	r21, r21
     1d0:	6a 95       	dec	r22
     1d2:	d2 f7       	brpl	.-12     	; 0x1c8 <_fpadd_parts+0xde>
     1d4:	21 50       	subi	r18, 0x01	; 1
     1d6:	30 40       	sbci	r19, 0x00	; 0
     1d8:	40 40       	sbci	r20, 0x00	; 0
     1da:	50 40       	sbci	r21, 0x00	; 0
     1dc:	2e 21       	and	r18, r14
     1de:	3f 21       	and	r19, r15
     1e0:	40 23       	and	r20, r16
     1e2:	51 23       	and	r21, r17
     1e4:	21 15       	cp	r18, r1
     1e6:	31 05       	cpc	r19, r1
     1e8:	41 05       	cpc	r20, r1
     1ea:	51 05       	cpc	r21, r1
     1ec:	21 f0       	breq	.+8      	; 0x1f6 <_fpadd_parts+0x10c>
     1ee:	21 e0       	ldi	r18, 0x01	; 1
     1f0:	30 e0       	ldi	r19, 0x00	; 0
     1f2:	40 e0       	ldi	r20, 0x00	; 0
     1f4:	50 e0       	ldi	r21, 0x00	; 0
     1f6:	79 01       	movw	r14, r18
     1f8:	8a 01       	movw	r16, r20
     1fa:	e6 28       	or	r14, r6
     1fc:	f7 28       	or	r15, r7
     1fe:	08 29       	or	r16, r8
     200:	19 29       	or	r17, r9
     202:	3c c0       	rjmp	.+120    	; 0x27c <_fpadd_parts+0x192>
     204:	23 2b       	or	r18, r19
     206:	d1 f1       	breq	.+116    	; 0x27c <_fpadd_parts+0x192>
     208:	26 0e       	add	r2, r22
     20a:	37 1e       	adc	r3, r23
     20c:	35 01       	movw	r6, r10
     20e:	46 01       	movw	r8, r12
     210:	06 2e       	mov	r0, r22
     212:	04 c0       	rjmp	.+8      	; 0x21c <_fpadd_parts+0x132>
     214:	96 94       	lsr	r9
     216:	87 94       	ror	r8
     218:	77 94       	ror	r7
     21a:	67 94       	ror	r6
     21c:	0a 94       	dec	r0
     21e:	d2 f7       	brpl	.-12     	; 0x214 <_fpadd_parts+0x12a>
     220:	21 e0       	ldi	r18, 0x01	; 1
     222:	30 e0       	ldi	r19, 0x00	; 0
     224:	40 e0       	ldi	r20, 0x00	; 0
     226:	50 e0       	ldi	r21, 0x00	; 0
     228:	04 c0       	rjmp	.+8      	; 0x232 <_fpadd_parts+0x148>
     22a:	22 0f       	add	r18, r18
     22c:	33 1f       	adc	r19, r19
     22e:	44 1f       	adc	r20, r20
     230:	55 1f       	adc	r21, r21
     232:	6a 95       	dec	r22
     234:	d2 f7       	brpl	.-12     	; 0x22a <_fpadd_parts+0x140>
     236:	21 50       	subi	r18, 0x01	; 1
     238:	30 40       	sbci	r19, 0x00	; 0
     23a:	40 40       	sbci	r20, 0x00	; 0
     23c:	50 40       	sbci	r21, 0x00	; 0
     23e:	2a 21       	and	r18, r10
     240:	3b 21       	and	r19, r11
     242:	4c 21       	and	r20, r12
     244:	5d 21       	and	r21, r13
     246:	21 15       	cp	r18, r1
     248:	31 05       	cpc	r19, r1
     24a:	41 05       	cpc	r20, r1
     24c:	51 05       	cpc	r21, r1
     24e:	21 f0       	breq	.+8      	; 0x258 <_fpadd_parts+0x16e>
     250:	21 e0       	ldi	r18, 0x01	; 1
     252:	30 e0       	ldi	r19, 0x00	; 0
     254:	40 e0       	ldi	r20, 0x00	; 0
     256:	50 e0       	ldi	r21, 0x00	; 0
     258:	59 01       	movw	r10, r18
     25a:	6a 01       	movw	r12, r20
     25c:	a6 28       	or	r10, r6
     25e:	b7 28       	or	r11, r7
     260:	c8 28       	or	r12, r8
     262:	d9 28       	or	r13, r9
     264:	0b c0       	rjmp	.+22     	; 0x27c <_fpadd_parts+0x192>
     266:	82 15       	cp	r24, r2
     268:	93 05       	cpc	r25, r3
     26a:	2c f0       	brlt	.+10     	; 0x276 <_fpadd_parts+0x18c>
     26c:	1c 01       	movw	r2, r24
     26e:	aa 24       	eor	r10, r10
     270:	bb 24       	eor	r11, r11
     272:	65 01       	movw	r12, r10
     274:	03 c0       	rjmp	.+6      	; 0x27c <_fpadd_parts+0x192>
     276:	ee 24       	eor	r14, r14
     278:	ff 24       	eor	r15, r15
     27a:	87 01       	movw	r16, r14
     27c:	11 96       	adiw	r26, 0x01	; 1
     27e:	9c 91       	ld	r25, X
     280:	d2 01       	movw	r26, r4
     282:	11 96       	adiw	r26, 0x01	; 1
     284:	8c 91       	ld	r24, X
     286:	98 17       	cp	r25, r24
     288:	09 f4       	brne	.+2      	; 0x28c <_fpadd_parts+0x1a2>
     28a:	45 c0       	rjmp	.+138    	; 0x316 <_fpadd_parts+0x22c>
     28c:	99 23       	and	r25, r25
     28e:	39 f0       	breq	.+14     	; 0x29e <_fpadd_parts+0x1b4>
     290:	a8 01       	movw	r20, r16
     292:	97 01       	movw	r18, r14
     294:	2a 19       	sub	r18, r10
     296:	3b 09       	sbc	r19, r11
     298:	4c 09       	sbc	r20, r12
     29a:	5d 09       	sbc	r21, r13
     29c:	06 c0       	rjmp	.+12     	; 0x2aa <_fpadd_parts+0x1c0>
     29e:	a6 01       	movw	r20, r12
     2a0:	95 01       	movw	r18, r10
     2a2:	2e 19       	sub	r18, r14
     2a4:	3f 09       	sbc	r19, r15
     2a6:	40 0b       	sbc	r20, r16
     2a8:	51 0b       	sbc	r21, r17
     2aa:	57 fd       	sbrc	r21, 7
     2ac:	08 c0       	rjmp	.+16     	; 0x2be <_fpadd_parts+0x1d4>
     2ae:	11 82       	std	Z+1, r1	; 0x01
     2b0:	33 82       	std	Z+3, r3	; 0x03
     2b2:	22 82       	std	Z+2, r2	; 0x02
     2b4:	24 83       	std	Z+4, r18	; 0x04
     2b6:	35 83       	std	Z+5, r19	; 0x05
     2b8:	46 83       	std	Z+6, r20	; 0x06
     2ba:	57 83       	std	Z+7, r21	; 0x07
     2bc:	1d c0       	rjmp	.+58     	; 0x2f8 <_fpadd_parts+0x20e>
     2be:	81 e0       	ldi	r24, 0x01	; 1
     2c0:	81 83       	std	Z+1, r24	; 0x01
     2c2:	33 82       	std	Z+3, r3	; 0x03
     2c4:	22 82       	std	Z+2, r2	; 0x02
     2c6:	88 27       	eor	r24, r24
     2c8:	99 27       	eor	r25, r25
     2ca:	dc 01       	movw	r26, r24
     2cc:	82 1b       	sub	r24, r18
     2ce:	93 0b       	sbc	r25, r19
     2d0:	a4 0b       	sbc	r26, r20
     2d2:	b5 0b       	sbc	r27, r21
     2d4:	84 83       	std	Z+4, r24	; 0x04
     2d6:	95 83       	std	Z+5, r25	; 0x05
     2d8:	a6 83       	std	Z+6, r26	; 0x06
     2da:	b7 83       	std	Z+7, r27	; 0x07
     2dc:	0d c0       	rjmp	.+26     	; 0x2f8 <_fpadd_parts+0x20e>
     2de:	22 0f       	add	r18, r18
     2e0:	33 1f       	adc	r19, r19
     2e2:	44 1f       	adc	r20, r20
     2e4:	55 1f       	adc	r21, r21
     2e6:	24 83       	std	Z+4, r18	; 0x04
     2e8:	35 83       	std	Z+5, r19	; 0x05
     2ea:	46 83       	std	Z+6, r20	; 0x06
     2ec:	57 83       	std	Z+7, r21	; 0x07
     2ee:	82 81       	ldd	r24, Z+2	; 0x02
     2f0:	93 81       	ldd	r25, Z+3	; 0x03
     2f2:	01 97       	sbiw	r24, 0x01	; 1
     2f4:	93 83       	std	Z+3, r25	; 0x03
     2f6:	82 83       	std	Z+2, r24	; 0x02
     2f8:	24 81       	ldd	r18, Z+4	; 0x04
     2fa:	35 81       	ldd	r19, Z+5	; 0x05
     2fc:	46 81       	ldd	r20, Z+6	; 0x06
     2fe:	57 81       	ldd	r21, Z+7	; 0x07
     300:	da 01       	movw	r26, r20
     302:	c9 01       	movw	r24, r18
     304:	01 97       	sbiw	r24, 0x01	; 1
     306:	a1 09       	sbc	r26, r1
     308:	b1 09       	sbc	r27, r1
     30a:	8f 5f       	subi	r24, 0xFF	; 255
     30c:	9f 4f       	sbci	r25, 0xFF	; 255
     30e:	af 4f       	sbci	r26, 0xFF	; 255
     310:	bf 43       	sbci	r27, 0x3F	; 63
     312:	28 f3       	brcs	.-54     	; 0x2de <_fpadd_parts+0x1f4>
     314:	0b c0       	rjmp	.+22     	; 0x32c <_fpadd_parts+0x242>
     316:	91 83       	std	Z+1, r25	; 0x01
     318:	33 82       	std	Z+3, r3	; 0x03
     31a:	22 82       	std	Z+2, r2	; 0x02
     31c:	ea 0c       	add	r14, r10
     31e:	fb 1c       	adc	r15, r11
     320:	0c 1d       	adc	r16, r12
     322:	1d 1d       	adc	r17, r13
     324:	e4 82       	std	Z+4, r14	; 0x04
     326:	f5 82       	std	Z+5, r15	; 0x05
     328:	06 83       	std	Z+6, r16	; 0x06
     32a:	17 83       	std	Z+7, r17	; 0x07
     32c:	83 e0       	ldi	r24, 0x03	; 3
     32e:	80 83       	st	Z, r24
     330:	24 81       	ldd	r18, Z+4	; 0x04
     332:	35 81       	ldd	r19, Z+5	; 0x05
     334:	46 81       	ldd	r20, Z+6	; 0x06
     336:	57 81       	ldd	r21, Z+7	; 0x07
     338:	57 ff       	sbrs	r21, 7
     33a:	1a c0       	rjmp	.+52     	; 0x370 <_fpadd_parts+0x286>
     33c:	c9 01       	movw	r24, r18
     33e:	aa 27       	eor	r26, r26
     340:	97 fd       	sbrc	r25, 7
     342:	a0 95       	com	r26
     344:	ba 2f       	mov	r27, r26
     346:	81 70       	andi	r24, 0x01	; 1
     348:	90 70       	andi	r25, 0x00	; 0
     34a:	a0 70       	andi	r26, 0x00	; 0
     34c:	b0 70       	andi	r27, 0x00	; 0
     34e:	56 95       	lsr	r21
     350:	47 95       	ror	r20
     352:	37 95       	ror	r19
     354:	27 95       	ror	r18
     356:	82 2b       	or	r24, r18
     358:	93 2b       	or	r25, r19
     35a:	a4 2b       	or	r26, r20
     35c:	b5 2b       	or	r27, r21
     35e:	84 83       	std	Z+4, r24	; 0x04
     360:	95 83       	std	Z+5, r25	; 0x05
     362:	a6 83       	std	Z+6, r26	; 0x06
     364:	b7 83       	std	Z+7, r27	; 0x07
     366:	82 81       	ldd	r24, Z+2	; 0x02
     368:	93 81       	ldd	r25, Z+3	; 0x03
     36a:	01 96       	adiw	r24, 0x01	; 1
     36c:	93 83       	std	Z+3, r25	; 0x03
     36e:	82 83       	std	Z+2, r24	; 0x02
     370:	df 01       	movw	r26, r30
     372:	01 c0       	rjmp	.+2      	; 0x376 <_fpadd_parts+0x28c>
     374:	d2 01       	movw	r26, r4
     376:	cd 01       	movw	r24, r26
     378:	cd b7       	in	r28, 0x3d	; 61
     37a:	de b7       	in	r29, 0x3e	; 62
     37c:	e2 e1       	ldi	r30, 0x12	; 18
     37e:	0c 94 b8 13 	jmp	0x2770	; 0x2770 <__epilogue_restores__>

00000382 <__subsf3>:
     382:	a0 e2       	ldi	r26, 0x20	; 32
     384:	b0 e0       	ldi	r27, 0x00	; 0
     386:	e7 ec       	ldi	r30, 0xC7	; 199
     388:	f1 e0       	ldi	r31, 0x01	; 1
     38a:	0c 94 a8 13 	jmp	0x2750	; 0x2750 <__prologue_saves__+0x18>
     38e:	69 83       	std	Y+1, r22	; 0x01
     390:	7a 83       	std	Y+2, r23	; 0x02
     392:	8b 83       	std	Y+3, r24	; 0x03
     394:	9c 83       	std	Y+4, r25	; 0x04
     396:	2d 83       	std	Y+5, r18	; 0x05
     398:	3e 83       	std	Y+6, r19	; 0x06
     39a:	4f 83       	std	Y+7, r20	; 0x07
     39c:	58 87       	std	Y+8, r21	; 0x08
     39e:	e9 e0       	ldi	r30, 0x09	; 9
     3a0:	ee 2e       	mov	r14, r30
     3a2:	f1 2c       	mov	r15, r1
     3a4:	ec 0e       	add	r14, r28
     3a6:	fd 1e       	adc	r15, r29
     3a8:	ce 01       	movw	r24, r28
     3aa:	01 96       	adiw	r24, 0x01	; 1
     3ac:	b7 01       	movw	r22, r14
     3ae:	0e 94 7f 05 	call	0xafe	; 0xafe <__unpack_f>
     3b2:	8e 01       	movw	r16, r28
     3b4:	0f 5e       	subi	r16, 0xEF	; 239
     3b6:	1f 4f       	sbci	r17, 0xFF	; 255
     3b8:	ce 01       	movw	r24, r28
     3ba:	05 96       	adiw	r24, 0x05	; 5
     3bc:	b8 01       	movw	r22, r16
     3be:	0e 94 7f 05 	call	0xafe	; 0xafe <__unpack_f>
     3c2:	8a 89       	ldd	r24, Y+18	; 0x12
     3c4:	91 e0       	ldi	r25, 0x01	; 1
     3c6:	89 27       	eor	r24, r25
     3c8:	8a 8b       	std	Y+18, r24	; 0x12
     3ca:	c7 01       	movw	r24, r14
     3cc:	b8 01       	movw	r22, r16
     3ce:	ae 01       	movw	r20, r28
     3d0:	47 5e       	subi	r20, 0xE7	; 231
     3d2:	5f 4f       	sbci	r21, 0xFF	; 255
     3d4:	0e 94 75 00 	call	0xea	; 0xea <_fpadd_parts>
     3d8:	0e 94 aa 04 	call	0x954	; 0x954 <__pack_f>
     3dc:	a0 96       	adiw	r28, 0x20	; 32
     3de:	e6 e0       	ldi	r30, 0x06	; 6
     3e0:	0c 94 c4 13 	jmp	0x2788	; 0x2788 <__epilogue_restores__+0x18>

000003e4 <__addsf3>:
     3e4:	a0 e2       	ldi	r26, 0x20	; 32
     3e6:	b0 e0       	ldi	r27, 0x00	; 0
     3e8:	e8 ef       	ldi	r30, 0xF8	; 248
     3ea:	f1 e0       	ldi	r31, 0x01	; 1
     3ec:	0c 94 a8 13 	jmp	0x2750	; 0x2750 <__prologue_saves__+0x18>
     3f0:	69 83       	std	Y+1, r22	; 0x01
     3f2:	7a 83       	std	Y+2, r23	; 0x02
     3f4:	8b 83       	std	Y+3, r24	; 0x03
     3f6:	9c 83       	std	Y+4, r25	; 0x04
     3f8:	2d 83       	std	Y+5, r18	; 0x05
     3fa:	3e 83       	std	Y+6, r19	; 0x06
     3fc:	4f 83       	std	Y+7, r20	; 0x07
     3fe:	58 87       	std	Y+8, r21	; 0x08
     400:	f9 e0       	ldi	r31, 0x09	; 9
     402:	ef 2e       	mov	r14, r31
     404:	f1 2c       	mov	r15, r1
     406:	ec 0e       	add	r14, r28
     408:	fd 1e       	adc	r15, r29
     40a:	ce 01       	movw	r24, r28
     40c:	01 96       	adiw	r24, 0x01	; 1
     40e:	b7 01       	movw	r22, r14
     410:	0e 94 7f 05 	call	0xafe	; 0xafe <__unpack_f>
     414:	8e 01       	movw	r16, r28
     416:	0f 5e       	subi	r16, 0xEF	; 239
     418:	1f 4f       	sbci	r17, 0xFF	; 255
     41a:	ce 01       	movw	r24, r28
     41c:	05 96       	adiw	r24, 0x05	; 5
     41e:	b8 01       	movw	r22, r16
     420:	0e 94 7f 05 	call	0xafe	; 0xafe <__unpack_f>
     424:	c7 01       	movw	r24, r14
     426:	b8 01       	movw	r22, r16
     428:	ae 01       	movw	r20, r28
     42a:	47 5e       	subi	r20, 0xE7	; 231
     42c:	5f 4f       	sbci	r21, 0xFF	; 255
     42e:	0e 94 75 00 	call	0xea	; 0xea <_fpadd_parts>
     432:	0e 94 aa 04 	call	0x954	; 0x954 <__pack_f>
     436:	a0 96       	adiw	r28, 0x20	; 32
     438:	e6 e0       	ldi	r30, 0x06	; 6
     43a:	0c 94 c4 13 	jmp	0x2788	; 0x2788 <__epilogue_restores__+0x18>

0000043e <__mulsf3>:
     43e:	a0 e2       	ldi	r26, 0x20	; 32
     440:	b0 e0       	ldi	r27, 0x00	; 0
     442:	e5 e2       	ldi	r30, 0x25	; 37
     444:	f2 e0       	ldi	r31, 0x02	; 2
     446:	0c 94 9c 13 	jmp	0x2738	; 0x2738 <__prologue_saves__>
     44a:	69 83       	std	Y+1, r22	; 0x01
     44c:	7a 83       	std	Y+2, r23	; 0x02
     44e:	8b 83       	std	Y+3, r24	; 0x03
     450:	9c 83       	std	Y+4, r25	; 0x04
     452:	2d 83       	std	Y+5, r18	; 0x05
     454:	3e 83       	std	Y+6, r19	; 0x06
     456:	4f 83       	std	Y+7, r20	; 0x07
     458:	58 87       	std	Y+8, r21	; 0x08
     45a:	ce 01       	movw	r24, r28
     45c:	01 96       	adiw	r24, 0x01	; 1
     45e:	be 01       	movw	r22, r28
     460:	67 5f       	subi	r22, 0xF7	; 247
     462:	7f 4f       	sbci	r23, 0xFF	; 255
     464:	0e 94 7f 05 	call	0xafe	; 0xafe <__unpack_f>
     468:	ce 01       	movw	r24, r28
     46a:	05 96       	adiw	r24, 0x05	; 5
     46c:	be 01       	movw	r22, r28
     46e:	6f 5e       	subi	r22, 0xEF	; 239
     470:	7f 4f       	sbci	r23, 0xFF	; 255
     472:	0e 94 7f 05 	call	0xafe	; 0xafe <__unpack_f>
     476:	99 85       	ldd	r25, Y+9	; 0x09
     478:	92 30       	cpi	r25, 0x02	; 2
     47a:	88 f0       	brcs	.+34     	; 0x49e <__mulsf3+0x60>
     47c:	89 89       	ldd	r24, Y+17	; 0x11
     47e:	82 30       	cpi	r24, 0x02	; 2
     480:	c8 f0       	brcs	.+50     	; 0x4b4 <__mulsf3+0x76>
     482:	94 30       	cpi	r25, 0x04	; 4
     484:	19 f4       	brne	.+6      	; 0x48c <__mulsf3+0x4e>
     486:	82 30       	cpi	r24, 0x02	; 2
     488:	51 f4       	brne	.+20     	; 0x49e <__mulsf3+0x60>
     48a:	04 c0       	rjmp	.+8      	; 0x494 <__mulsf3+0x56>
     48c:	84 30       	cpi	r24, 0x04	; 4
     48e:	29 f4       	brne	.+10     	; 0x49a <__mulsf3+0x5c>
     490:	92 30       	cpi	r25, 0x02	; 2
     492:	81 f4       	brne	.+32     	; 0x4b4 <__mulsf3+0x76>
     494:	88 e6       	ldi	r24, 0x68	; 104
     496:	90 e0       	ldi	r25, 0x00	; 0
     498:	c6 c0       	rjmp	.+396    	; 0x626 <__mulsf3+0x1e8>
     49a:	92 30       	cpi	r25, 0x02	; 2
     49c:	49 f4       	brne	.+18     	; 0x4b0 <__mulsf3+0x72>
     49e:	20 e0       	ldi	r18, 0x00	; 0
     4a0:	9a 85       	ldd	r25, Y+10	; 0x0a
     4a2:	8a 89       	ldd	r24, Y+18	; 0x12
     4a4:	98 13       	cpse	r25, r24
     4a6:	21 e0       	ldi	r18, 0x01	; 1
     4a8:	2a 87       	std	Y+10, r18	; 0x0a
     4aa:	ce 01       	movw	r24, r28
     4ac:	09 96       	adiw	r24, 0x09	; 9
     4ae:	bb c0       	rjmp	.+374    	; 0x626 <__mulsf3+0x1e8>
     4b0:	82 30       	cpi	r24, 0x02	; 2
     4b2:	49 f4       	brne	.+18     	; 0x4c6 <__mulsf3+0x88>
     4b4:	20 e0       	ldi	r18, 0x00	; 0
     4b6:	9a 85       	ldd	r25, Y+10	; 0x0a
     4b8:	8a 89       	ldd	r24, Y+18	; 0x12
     4ba:	98 13       	cpse	r25, r24
     4bc:	21 e0       	ldi	r18, 0x01	; 1
     4be:	2a 8b       	std	Y+18, r18	; 0x12
     4c0:	ce 01       	movw	r24, r28
     4c2:	41 96       	adiw	r24, 0x11	; 17
     4c4:	b0 c0       	rjmp	.+352    	; 0x626 <__mulsf3+0x1e8>
     4c6:	2d 84       	ldd	r2, Y+13	; 0x0d
     4c8:	3e 84       	ldd	r3, Y+14	; 0x0e
     4ca:	4f 84       	ldd	r4, Y+15	; 0x0f
     4cc:	58 88       	ldd	r5, Y+16	; 0x10
     4ce:	6d 88       	ldd	r6, Y+21	; 0x15
     4d0:	7e 88       	ldd	r7, Y+22	; 0x16
     4d2:	8f 88       	ldd	r8, Y+23	; 0x17
     4d4:	98 8c       	ldd	r9, Y+24	; 0x18
     4d6:	ee 24       	eor	r14, r14
     4d8:	ff 24       	eor	r15, r15
     4da:	87 01       	movw	r16, r14
     4dc:	aa 24       	eor	r10, r10
     4de:	bb 24       	eor	r11, r11
     4e0:	65 01       	movw	r12, r10
     4e2:	40 e0       	ldi	r20, 0x00	; 0
     4e4:	50 e0       	ldi	r21, 0x00	; 0
     4e6:	60 e0       	ldi	r22, 0x00	; 0
     4e8:	70 e0       	ldi	r23, 0x00	; 0
     4ea:	e0 e0       	ldi	r30, 0x00	; 0
     4ec:	f0 e0       	ldi	r31, 0x00	; 0
     4ee:	c1 01       	movw	r24, r2
     4f0:	81 70       	andi	r24, 0x01	; 1
     4f2:	90 70       	andi	r25, 0x00	; 0
     4f4:	89 2b       	or	r24, r25
     4f6:	e9 f0       	breq	.+58     	; 0x532 <__mulsf3+0xf4>
     4f8:	e6 0c       	add	r14, r6
     4fa:	f7 1c       	adc	r15, r7
     4fc:	08 1d       	adc	r16, r8
     4fe:	19 1d       	adc	r17, r9
     500:	9a 01       	movw	r18, r20
     502:	ab 01       	movw	r20, r22
     504:	2a 0d       	add	r18, r10
     506:	3b 1d       	adc	r19, r11
     508:	4c 1d       	adc	r20, r12
     50a:	5d 1d       	adc	r21, r13
     50c:	80 e0       	ldi	r24, 0x00	; 0
     50e:	90 e0       	ldi	r25, 0x00	; 0
     510:	a0 e0       	ldi	r26, 0x00	; 0
     512:	b0 e0       	ldi	r27, 0x00	; 0
     514:	e6 14       	cp	r14, r6
     516:	f7 04       	cpc	r15, r7
     518:	08 05       	cpc	r16, r8
     51a:	19 05       	cpc	r17, r9
     51c:	20 f4       	brcc	.+8      	; 0x526 <__mulsf3+0xe8>
     51e:	81 e0       	ldi	r24, 0x01	; 1
     520:	90 e0       	ldi	r25, 0x00	; 0
     522:	a0 e0       	ldi	r26, 0x00	; 0
     524:	b0 e0       	ldi	r27, 0x00	; 0
     526:	ba 01       	movw	r22, r20
     528:	a9 01       	movw	r20, r18
     52a:	48 0f       	add	r20, r24
     52c:	59 1f       	adc	r21, r25
     52e:	6a 1f       	adc	r22, r26
     530:	7b 1f       	adc	r23, r27
     532:	aa 0c       	add	r10, r10
     534:	bb 1c       	adc	r11, r11
     536:	cc 1c       	adc	r12, r12
     538:	dd 1c       	adc	r13, r13
     53a:	97 fe       	sbrs	r9, 7
     53c:	08 c0       	rjmp	.+16     	; 0x54e <__mulsf3+0x110>
     53e:	81 e0       	ldi	r24, 0x01	; 1
     540:	90 e0       	ldi	r25, 0x00	; 0
     542:	a0 e0       	ldi	r26, 0x00	; 0
     544:	b0 e0       	ldi	r27, 0x00	; 0
     546:	a8 2a       	or	r10, r24
     548:	b9 2a       	or	r11, r25
     54a:	ca 2a       	or	r12, r26
     54c:	db 2a       	or	r13, r27
     54e:	31 96       	adiw	r30, 0x01	; 1
     550:	e0 32       	cpi	r30, 0x20	; 32
     552:	f1 05       	cpc	r31, r1
     554:	49 f0       	breq	.+18     	; 0x568 <__mulsf3+0x12a>
     556:	66 0c       	add	r6, r6
     558:	77 1c       	adc	r7, r7
     55a:	88 1c       	adc	r8, r8
     55c:	99 1c       	adc	r9, r9
     55e:	56 94       	lsr	r5
     560:	47 94       	ror	r4
     562:	37 94       	ror	r3
     564:	27 94       	ror	r2
     566:	c3 cf       	rjmp	.-122    	; 0x4ee <__mulsf3+0xb0>
     568:	fa 85       	ldd	r31, Y+10	; 0x0a
     56a:	ea 89       	ldd	r30, Y+18	; 0x12
     56c:	2b 89       	ldd	r18, Y+19	; 0x13
     56e:	3c 89       	ldd	r19, Y+20	; 0x14
     570:	8b 85       	ldd	r24, Y+11	; 0x0b
     572:	9c 85       	ldd	r25, Y+12	; 0x0c
     574:	28 0f       	add	r18, r24
     576:	39 1f       	adc	r19, r25
     578:	2e 5f       	subi	r18, 0xFE	; 254
     57a:	3f 4f       	sbci	r19, 0xFF	; 255
     57c:	17 c0       	rjmp	.+46     	; 0x5ac <__mulsf3+0x16e>
     57e:	ca 01       	movw	r24, r20
     580:	81 70       	andi	r24, 0x01	; 1
     582:	90 70       	andi	r25, 0x00	; 0
     584:	89 2b       	or	r24, r25
     586:	61 f0       	breq	.+24     	; 0x5a0 <__mulsf3+0x162>
     588:	16 95       	lsr	r17
     58a:	07 95       	ror	r16
     58c:	f7 94       	ror	r15
     58e:	e7 94       	ror	r14
     590:	80 e0       	ldi	r24, 0x00	; 0
     592:	90 e0       	ldi	r25, 0x00	; 0
     594:	a0 e0       	ldi	r26, 0x00	; 0
     596:	b0 e8       	ldi	r27, 0x80	; 128
     598:	e8 2a       	or	r14, r24
     59a:	f9 2a       	or	r15, r25
     59c:	0a 2b       	or	r16, r26
     59e:	1b 2b       	or	r17, r27
     5a0:	76 95       	lsr	r23
     5a2:	67 95       	ror	r22
     5a4:	57 95       	ror	r21
     5a6:	47 95       	ror	r20
     5a8:	2f 5f       	subi	r18, 0xFF	; 255
     5aa:	3f 4f       	sbci	r19, 0xFF	; 255
     5ac:	77 fd       	sbrc	r23, 7
     5ae:	e7 cf       	rjmp	.-50     	; 0x57e <__mulsf3+0x140>
     5b0:	0c c0       	rjmp	.+24     	; 0x5ca <__mulsf3+0x18c>
     5b2:	44 0f       	add	r20, r20
     5b4:	55 1f       	adc	r21, r21
     5b6:	66 1f       	adc	r22, r22
     5b8:	77 1f       	adc	r23, r23
     5ba:	17 fd       	sbrc	r17, 7
     5bc:	41 60       	ori	r20, 0x01	; 1
     5be:	ee 0c       	add	r14, r14
     5c0:	ff 1c       	adc	r15, r15
     5c2:	00 1f       	adc	r16, r16
     5c4:	11 1f       	adc	r17, r17
     5c6:	21 50       	subi	r18, 0x01	; 1
     5c8:	30 40       	sbci	r19, 0x00	; 0
     5ca:	40 30       	cpi	r20, 0x00	; 0
     5cc:	90 e0       	ldi	r25, 0x00	; 0
     5ce:	59 07       	cpc	r21, r25
     5d0:	90 e0       	ldi	r25, 0x00	; 0
     5d2:	69 07       	cpc	r22, r25
     5d4:	90 e4       	ldi	r25, 0x40	; 64
     5d6:	79 07       	cpc	r23, r25
     5d8:	60 f3       	brcs	.-40     	; 0x5b2 <__mulsf3+0x174>
     5da:	2b 8f       	std	Y+27, r18	; 0x1b
     5dc:	3c 8f       	std	Y+28, r19	; 0x1c
     5de:	db 01       	movw	r26, r22
     5e0:	ca 01       	movw	r24, r20
     5e2:	8f 77       	andi	r24, 0x7F	; 127
     5e4:	90 70       	andi	r25, 0x00	; 0
     5e6:	a0 70       	andi	r26, 0x00	; 0
     5e8:	b0 70       	andi	r27, 0x00	; 0
     5ea:	80 34       	cpi	r24, 0x40	; 64
     5ec:	91 05       	cpc	r25, r1
     5ee:	a1 05       	cpc	r26, r1
     5f0:	b1 05       	cpc	r27, r1
     5f2:	61 f4       	brne	.+24     	; 0x60c <__mulsf3+0x1ce>
     5f4:	47 fd       	sbrc	r20, 7
     5f6:	0a c0       	rjmp	.+20     	; 0x60c <__mulsf3+0x1ce>
     5f8:	e1 14       	cp	r14, r1
     5fa:	f1 04       	cpc	r15, r1
     5fc:	01 05       	cpc	r16, r1
     5fe:	11 05       	cpc	r17, r1
     600:	29 f0       	breq	.+10     	; 0x60c <__mulsf3+0x1ce>
     602:	40 5c       	subi	r20, 0xC0	; 192
     604:	5f 4f       	sbci	r21, 0xFF	; 255
     606:	6f 4f       	sbci	r22, 0xFF	; 255
     608:	7f 4f       	sbci	r23, 0xFF	; 255
     60a:	40 78       	andi	r20, 0x80	; 128
     60c:	1a 8e       	std	Y+26, r1	; 0x1a
     60e:	fe 17       	cp	r31, r30
     610:	11 f0       	breq	.+4      	; 0x616 <__mulsf3+0x1d8>
     612:	81 e0       	ldi	r24, 0x01	; 1
     614:	8a 8f       	std	Y+26, r24	; 0x1a
     616:	4d 8f       	std	Y+29, r20	; 0x1d
     618:	5e 8f       	std	Y+30, r21	; 0x1e
     61a:	6f 8f       	std	Y+31, r22	; 0x1f
     61c:	78 a3       	std	Y+32, r23	; 0x20
     61e:	83 e0       	ldi	r24, 0x03	; 3
     620:	89 8f       	std	Y+25, r24	; 0x19
     622:	ce 01       	movw	r24, r28
     624:	49 96       	adiw	r24, 0x19	; 25
     626:	0e 94 aa 04 	call	0x954	; 0x954 <__pack_f>
     62a:	a0 96       	adiw	r28, 0x20	; 32
     62c:	e2 e1       	ldi	r30, 0x12	; 18
     62e:	0c 94 b8 13 	jmp	0x2770	; 0x2770 <__epilogue_restores__>

00000632 <__gtsf2>:
     632:	a8 e1       	ldi	r26, 0x18	; 24
     634:	b0 e0       	ldi	r27, 0x00	; 0
     636:	ef e1       	ldi	r30, 0x1F	; 31
     638:	f3 e0       	ldi	r31, 0x03	; 3
     63a:	0c 94 a8 13 	jmp	0x2750	; 0x2750 <__prologue_saves__+0x18>
     63e:	69 83       	std	Y+1, r22	; 0x01
     640:	7a 83       	std	Y+2, r23	; 0x02
     642:	8b 83       	std	Y+3, r24	; 0x03
     644:	9c 83       	std	Y+4, r25	; 0x04
     646:	2d 83       	std	Y+5, r18	; 0x05
     648:	3e 83       	std	Y+6, r19	; 0x06
     64a:	4f 83       	std	Y+7, r20	; 0x07
     64c:	58 87       	std	Y+8, r21	; 0x08
     64e:	89 e0       	ldi	r24, 0x09	; 9
     650:	e8 2e       	mov	r14, r24
     652:	f1 2c       	mov	r15, r1
     654:	ec 0e       	add	r14, r28
     656:	fd 1e       	adc	r15, r29
     658:	ce 01       	movw	r24, r28
     65a:	01 96       	adiw	r24, 0x01	; 1
     65c:	b7 01       	movw	r22, r14
     65e:	0e 94 7f 05 	call	0xafe	; 0xafe <__unpack_f>
     662:	8e 01       	movw	r16, r28
     664:	0f 5e       	subi	r16, 0xEF	; 239
     666:	1f 4f       	sbci	r17, 0xFF	; 255
     668:	ce 01       	movw	r24, r28
     66a:	05 96       	adiw	r24, 0x05	; 5
     66c:	b8 01       	movw	r22, r16
     66e:	0e 94 7f 05 	call	0xafe	; 0xafe <__unpack_f>
     672:	89 85       	ldd	r24, Y+9	; 0x09
     674:	82 30       	cpi	r24, 0x02	; 2
     676:	40 f0       	brcs	.+16     	; 0x688 <__gtsf2+0x56>
     678:	89 89       	ldd	r24, Y+17	; 0x11
     67a:	82 30       	cpi	r24, 0x02	; 2
     67c:	28 f0       	brcs	.+10     	; 0x688 <__gtsf2+0x56>
     67e:	c7 01       	movw	r24, r14
     680:	b8 01       	movw	r22, r16
     682:	0e 94 f7 05 	call	0xbee	; 0xbee <__fpcmp_parts_f>
     686:	01 c0       	rjmp	.+2      	; 0x68a <__gtsf2+0x58>
     688:	8f ef       	ldi	r24, 0xFF	; 255
     68a:	68 96       	adiw	r28, 0x18	; 24
     68c:	e6 e0       	ldi	r30, 0x06	; 6
     68e:	0c 94 c4 13 	jmp	0x2788	; 0x2788 <__epilogue_restores__+0x18>

00000692 <__gesf2>:
     692:	a8 e1       	ldi	r26, 0x18	; 24
     694:	b0 e0       	ldi	r27, 0x00	; 0
     696:	ef e4       	ldi	r30, 0x4F	; 79
     698:	f3 e0       	ldi	r31, 0x03	; 3
     69a:	0c 94 a8 13 	jmp	0x2750	; 0x2750 <__prologue_saves__+0x18>
     69e:	69 83       	std	Y+1, r22	; 0x01
     6a0:	7a 83       	std	Y+2, r23	; 0x02
     6a2:	8b 83       	std	Y+3, r24	; 0x03
     6a4:	9c 83       	std	Y+4, r25	; 0x04
     6a6:	2d 83       	std	Y+5, r18	; 0x05
     6a8:	3e 83       	std	Y+6, r19	; 0x06
     6aa:	4f 83       	std	Y+7, r20	; 0x07
     6ac:	58 87       	std	Y+8, r21	; 0x08
     6ae:	89 e0       	ldi	r24, 0x09	; 9
     6b0:	e8 2e       	mov	r14, r24
     6b2:	f1 2c       	mov	r15, r1
     6b4:	ec 0e       	add	r14, r28
     6b6:	fd 1e       	adc	r15, r29
     6b8:	ce 01       	movw	r24, r28
     6ba:	01 96       	adiw	r24, 0x01	; 1
     6bc:	b7 01       	movw	r22, r14
     6be:	0e 94 7f 05 	call	0xafe	; 0xafe <__unpack_f>
     6c2:	8e 01       	movw	r16, r28
     6c4:	0f 5e       	subi	r16, 0xEF	; 239
     6c6:	1f 4f       	sbci	r17, 0xFF	; 255
     6c8:	ce 01       	movw	r24, r28
     6ca:	05 96       	adiw	r24, 0x05	; 5
     6cc:	b8 01       	movw	r22, r16
     6ce:	0e 94 7f 05 	call	0xafe	; 0xafe <__unpack_f>
     6d2:	89 85       	ldd	r24, Y+9	; 0x09
     6d4:	82 30       	cpi	r24, 0x02	; 2
     6d6:	40 f0       	brcs	.+16     	; 0x6e8 <__gesf2+0x56>
     6d8:	89 89       	ldd	r24, Y+17	; 0x11
     6da:	82 30       	cpi	r24, 0x02	; 2
     6dc:	28 f0       	brcs	.+10     	; 0x6e8 <__gesf2+0x56>
     6de:	c7 01       	movw	r24, r14
     6e0:	b8 01       	movw	r22, r16
     6e2:	0e 94 f7 05 	call	0xbee	; 0xbee <__fpcmp_parts_f>
     6e6:	01 c0       	rjmp	.+2      	; 0x6ea <__gesf2+0x58>
     6e8:	8f ef       	ldi	r24, 0xFF	; 255
     6ea:	68 96       	adiw	r28, 0x18	; 24
     6ec:	e6 e0       	ldi	r30, 0x06	; 6
     6ee:	0c 94 c4 13 	jmp	0x2788	; 0x2788 <__epilogue_restores__+0x18>

000006f2 <__ltsf2>:
     6f2:	a8 e1       	ldi	r26, 0x18	; 24
     6f4:	b0 e0       	ldi	r27, 0x00	; 0
     6f6:	ef e7       	ldi	r30, 0x7F	; 127
     6f8:	f3 e0       	ldi	r31, 0x03	; 3
     6fa:	0c 94 a8 13 	jmp	0x2750	; 0x2750 <__prologue_saves__+0x18>
     6fe:	69 83       	std	Y+1, r22	; 0x01
     700:	7a 83       	std	Y+2, r23	; 0x02
     702:	8b 83       	std	Y+3, r24	; 0x03
     704:	9c 83       	std	Y+4, r25	; 0x04
     706:	2d 83       	std	Y+5, r18	; 0x05
     708:	3e 83       	std	Y+6, r19	; 0x06
     70a:	4f 83       	std	Y+7, r20	; 0x07
     70c:	58 87       	std	Y+8, r21	; 0x08
     70e:	89 e0       	ldi	r24, 0x09	; 9
     710:	e8 2e       	mov	r14, r24
     712:	f1 2c       	mov	r15, r1
     714:	ec 0e       	add	r14, r28
     716:	fd 1e       	adc	r15, r29
     718:	ce 01       	movw	r24, r28
     71a:	01 96       	adiw	r24, 0x01	; 1
     71c:	b7 01       	movw	r22, r14
     71e:	0e 94 7f 05 	call	0xafe	; 0xafe <__unpack_f>
     722:	8e 01       	movw	r16, r28
     724:	0f 5e       	subi	r16, 0xEF	; 239
     726:	1f 4f       	sbci	r17, 0xFF	; 255
     728:	ce 01       	movw	r24, r28
     72a:	05 96       	adiw	r24, 0x05	; 5
     72c:	b8 01       	movw	r22, r16
     72e:	0e 94 7f 05 	call	0xafe	; 0xafe <__unpack_f>
     732:	89 85       	ldd	r24, Y+9	; 0x09
     734:	82 30       	cpi	r24, 0x02	; 2
     736:	40 f0       	brcs	.+16     	; 0x748 <__ltsf2+0x56>
     738:	89 89       	ldd	r24, Y+17	; 0x11
     73a:	82 30       	cpi	r24, 0x02	; 2
     73c:	28 f0       	brcs	.+10     	; 0x748 <__ltsf2+0x56>
     73e:	c7 01       	movw	r24, r14
     740:	b8 01       	movw	r22, r16
     742:	0e 94 f7 05 	call	0xbee	; 0xbee <__fpcmp_parts_f>
     746:	01 c0       	rjmp	.+2      	; 0x74a <__ltsf2+0x58>
     748:	81 e0       	ldi	r24, 0x01	; 1
     74a:	68 96       	adiw	r28, 0x18	; 24
     74c:	e6 e0       	ldi	r30, 0x06	; 6
     74e:	0c 94 c4 13 	jmp	0x2788	; 0x2788 <__epilogue_restores__+0x18>

00000752 <__floatsisf>:
     752:	a8 e0       	ldi	r26, 0x08	; 8
     754:	b0 e0       	ldi	r27, 0x00	; 0
     756:	ef ea       	ldi	r30, 0xAF	; 175
     758:	f3 e0       	ldi	r31, 0x03	; 3
     75a:	0c 94 a5 13 	jmp	0x274a	; 0x274a <__prologue_saves__+0x12>
     75e:	9b 01       	movw	r18, r22
     760:	ac 01       	movw	r20, r24
     762:	83 e0       	ldi	r24, 0x03	; 3
     764:	89 83       	std	Y+1, r24	; 0x01
     766:	da 01       	movw	r26, r20
     768:	c9 01       	movw	r24, r18
     76a:	88 27       	eor	r24, r24
     76c:	b7 fd       	sbrc	r27, 7
     76e:	83 95       	inc	r24
     770:	99 27       	eor	r25, r25
     772:	aa 27       	eor	r26, r26
     774:	bb 27       	eor	r27, r27
     776:	b8 2e       	mov	r11, r24
     778:	21 15       	cp	r18, r1
     77a:	31 05       	cpc	r19, r1
     77c:	41 05       	cpc	r20, r1
     77e:	51 05       	cpc	r21, r1
     780:	19 f4       	brne	.+6      	; 0x788 <__floatsisf+0x36>
     782:	82 e0       	ldi	r24, 0x02	; 2
     784:	89 83       	std	Y+1, r24	; 0x01
     786:	3a c0       	rjmp	.+116    	; 0x7fc <__floatsisf+0xaa>
     788:	88 23       	and	r24, r24
     78a:	a9 f0       	breq	.+42     	; 0x7b6 <__floatsisf+0x64>
     78c:	20 30       	cpi	r18, 0x00	; 0
     78e:	80 e0       	ldi	r24, 0x00	; 0
     790:	38 07       	cpc	r19, r24
     792:	80 e0       	ldi	r24, 0x00	; 0
     794:	48 07       	cpc	r20, r24
     796:	80 e8       	ldi	r24, 0x80	; 128
     798:	58 07       	cpc	r21, r24
     79a:	29 f4       	brne	.+10     	; 0x7a6 <__floatsisf+0x54>
     79c:	60 e0       	ldi	r22, 0x00	; 0
     79e:	70 e0       	ldi	r23, 0x00	; 0
     7a0:	80 e0       	ldi	r24, 0x00	; 0
     7a2:	9f ec       	ldi	r25, 0xCF	; 207
     7a4:	30 c0       	rjmp	.+96     	; 0x806 <__floatsisf+0xb4>
     7a6:	ee 24       	eor	r14, r14
     7a8:	ff 24       	eor	r15, r15
     7aa:	87 01       	movw	r16, r14
     7ac:	e2 1a       	sub	r14, r18
     7ae:	f3 0a       	sbc	r15, r19
     7b0:	04 0b       	sbc	r16, r20
     7b2:	15 0b       	sbc	r17, r21
     7b4:	02 c0       	rjmp	.+4      	; 0x7ba <__floatsisf+0x68>
     7b6:	79 01       	movw	r14, r18
     7b8:	8a 01       	movw	r16, r20
     7ba:	8e e1       	ldi	r24, 0x1E	; 30
     7bc:	c8 2e       	mov	r12, r24
     7be:	d1 2c       	mov	r13, r1
     7c0:	dc 82       	std	Y+4, r13	; 0x04
     7c2:	cb 82       	std	Y+3, r12	; 0x03
     7c4:	ed 82       	std	Y+5, r14	; 0x05
     7c6:	fe 82       	std	Y+6, r15	; 0x06
     7c8:	0f 83       	std	Y+7, r16	; 0x07
     7ca:	18 87       	std	Y+8, r17	; 0x08
     7cc:	c8 01       	movw	r24, r16
     7ce:	b7 01       	movw	r22, r14
     7d0:	0e 94 5b 04 	call	0x8b6	; 0x8b6 <__clzsi2>
     7d4:	01 97       	sbiw	r24, 0x01	; 1
     7d6:	18 16       	cp	r1, r24
     7d8:	19 06       	cpc	r1, r25
     7da:	84 f4       	brge	.+32     	; 0x7fc <__floatsisf+0xaa>
     7dc:	08 2e       	mov	r0, r24
     7de:	04 c0       	rjmp	.+8      	; 0x7e8 <__floatsisf+0x96>
     7e0:	ee 0c       	add	r14, r14
     7e2:	ff 1c       	adc	r15, r15
     7e4:	00 1f       	adc	r16, r16
     7e6:	11 1f       	adc	r17, r17
     7e8:	0a 94       	dec	r0
     7ea:	d2 f7       	brpl	.-12     	; 0x7e0 <__floatsisf+0x8e>
     7ec:	ed 82       	std	Y+5, r14	; 0x05
     7ee:	fe 82       	std	Y+6, r15	; 0x06
     7f0:	0f 83       	std	Y+7, r16	; 0x07
     7f2:	18 87       	std	Y+8, r17	; 0x08
     7f4:	c8 1a       	sub	r12, r24
     7f6:	d9 0a       	sbc	r13, r25
     7f8:	dc 82       	std	Y+4, r13	; 0x04
     7fa:	cb 82       	std	Y+3, r12	; 0x03
     7fc:	ba 82       	std	Y+2, r11	; 0x02
     7fe:	ce 01       	movw	r24, r28
     800:	01 96       	adiw	r24, 0x01	; 1
     802:	0e 94 aa 04 	call	0x954	; 0x954 <__pack_f>
     806:	28 96       	adiw	r28, 0x08	; 8
     808:	e9 e0       	ldi	r30, 0x09	; 9
     80a:	0c 94 c1 13 	jmp	0x2782	; 0x2782 <__epilogue_restores__+0x12>

0000080e <__fixsfsi>:
     80e:	ac e0       	ldi	r26, 0x0C	; 12
     810:	b0 e0       	ldi	r27, 0x00	; 0
     812:	ed e0       	ldi	r30, 0x0D	; 13
     814:	f4 e0       	ldi	r31, 0x04	; 4
     816:	0c 94 ac 13 	jmp	0x2758	; 0x2758 <__prologue_saves__+0x20>
     81a:	69 83       	std	Y+1, r22	; 0x01
     81c:	7a 83       	std	Y+2, r23	; 0x02
     81e:	8b 83       	std	Y+3, r24	; 0x03
     820:	9c 83       	std	Y+4, r25	; 0x04
     822:	ce 01       	movw	r24, r28
     824:	01 96       	adiw	r24, 0x01	; 1
     826:	be 01       	movw	r22, r28
     828:	6b 5f       	subi	r22, 0xFB	; 251
     82a:	7f 4f       	sbci	r23, 0xFF	; 255
     82c:	0e 94 7f 05 	call	0xafe	; 0xafe <__unpack_f>
     830:	8d 81       	ldd	r24, Y+5	; 0x05
     832:	82 30       	cpi	r24, 0x02	; 2
     834:	61 f1       	breq	.+88     	; 0x88e <__stack+0x2f>
     836:	82 30       	cpi	r24, 0x02	; 2
     838:	50 f1       	brcs	.+84     	; 0x88e <__stack+0x2f>
     83a:	84 30       	cpi	r24, 0x04	; 4
     83c:	21 f4       	brne	.+8      	; 0x846 <__fixsfsi+0x38>
     83e:	8e 81       	ldd	r24, Y+6	; 0x06
     840:	88 23       	and	r24, r24
     842:	51 f1       	breq	.+84     	; 0x898 <__stack+0x39>
     844:	2e c0       	rjmp	.+92     	; 0x8a2 <__stack+0x43>
     846:	2f 81       	ldd	r18, Y+7	; 0x07
     848:	38 85       	ldd	r19, Y+8	; 0x08
     84a:	37 fd       	sbrc	r19, 7
     84c:	20 c0       	rjmp	.+64     	; 0x88e <__stack+0x2f>
     84e:	6e 81       	ldd	r22, Y+6	; 0x06
     850:	2f 31       	cpi	r18, 0x1F	; 31
     852:	31 05       	cpc	r19, r1
     854:	1c f0       	brlt	.+6      	; 0x85c <__fixsfsi+0x4e>
     856:	66 23       	and	r22, r22
     858:	f9 f0       	breq	.+62     	; 0x898 <__stack+0x39>
     85a:	23 c0       	rjmp	.+70     	; 0x8a2 <__stack+0x43>
     85c:	8e e1       	ldi	r24, 0x1E	; 30
     85e:	90 e0       	ldi	r25, 0x00	; 0
     860:	82 1b       	sub	r24, r18
     862:	93 0b       	sbc	r25, r19
     864:	29 85       	ldd	r18, Y+9	; 0x09
     866:	3a 85       	ldd	r19, Y+10	; 0x0a
     868:	4b 85       	ldd	r20, Y+11	; 0x0b
     86a:	5c 85       	ldd	r21, Y+12	; 0x0c
     86c:	04 c0       	rjmp	.+8      	; 0x876 <__stack+0x17>
     86e:	56 95       	lsr	r21
     870:	47 95       	ror	r20
     872:	37 95       	ror	r19
     874:	27 95       	ror	r18
     876:	8a 95       	dec	r24
     878:	d2 f7       	brpl	.-12     	; 0x86e <__stack+0xf>
     87a:	66 23       	and	r22, r22
     87c:	b1 f0       	breq	.+44     	; 0x8aa <__stack+0x4b>
     87e:	50 95       	com	r21
     880:	40 95       	com	r20
     882:	30 95       	com	r19
     884:	21 95       	neg	r18
     886:	3f 4f       	sbci	r19, 0xFF	; 255
     888:	4f 4f       	sbci	r20, 0xFF	; 255
     88a:	5f 4f       	sbci	r21, 0xFF	; 255
     88c:	0e c0       	rjmp	.+28     	; 0x8aa <__stack+0x4b>
     88e:	20 e0       	ldi	r18, 0x00	; 0
     890:	30 e0       	ldi	r19, 0x00	; 0
     892:	40 e0       	ldi	r20, 0x00	; 0
     894:	50 e0       	ldi	r21, 0x00	; 0
     896:	09 c0       	rjmp	.+18     	; 0x8aa <__stack+0x4b>
     898:	2f ef       	ldi	r18, 0xFF	; 255
     89a:	3f ef       	ldi	r19, 0xFF	; 255
     89c:	4f ef       	ldi	r20, 0xFF	; 255
     89e:	5f e7       	ldi	r21, 0x7F	; 127
     8a0:	04 c0       	rjmp	.+8      	; 0x8aa <__stack+0x4b>
     8a2:	20 e0       	ldi	r18, 0x00	; 0
     8a4:	30 e0       	ldi	r19, 0x00	; 0
     8a6:	40 e0       	ldi	r20, 0x00	; 0
     8a8:	50 e8       	ldi	r21, 0x80	; 128
     8aa:	b9 01       	movw	r22, r18
     8ac:	ca 01       	movw	r24, r20
     8ae:	2c 96       	adiw	r28, 0x0c	; 12
     8b0:	e2 e0       	ldi	r30, 0x02	; 2
     8b2:	0c 94 c8 13 	jmp	0x2790	; 0x2790 <__epilogue_restores__+0x20>

000008b6 <__clzsi2>:
     8b6:	ef 92       	push	r14
     8b8:	ff 92       	push	r15
     8ba:	0f 93       	push	r16
     8bc:	1f 93       	push	r17
     8be:	7b 01       	movw	r14, r22
     8c0:	8c 01       	movw	r16, r24
     8c2:	80 e0       	ldi	r24, 0x00	; 0
     8c4:	e8 16       	cp	r14, r24
     8c6:	80 e0       	ldi	r24, 0x00	; 0
     8c8:	f8 06       	cpc	r15, r24
     8ca:	81 e0       	ldi	r24, 0x01	; 1
     8cc:	08 07       	cpc	r16, r24
     8ce:	80 e0       	ldi	r24, 0x00	; 0
     8d0:	18 07       	cpc	r17, r24
     8d2:	88 f4       	brcc	.+34     	; 0x8f6 <__clzsi2+0x40>
     8d4:	8f ef       	ldi	r24, 0xFF	; 255
     8d6:	e8 16       	cp	r14, r24
     8d8:	f1 04       	cpc	r15, r1
     8da:	01 05       	cpc	r16, r1
     8dc:	11 05       	cpc	r17, r1
     8de:	31 f0       	breq	.+12     	; 0x8ec <__clzsi2+0x36>
     8e0:	28 f0       	brcs	.+10     	; 0x8ec <__clzsi2+0x36>
     8e2:	88 e0       	ldi	r24, 0x08	; 8
     8e4:	90 e0       	ldi	r25, 0x00	; 0
     8e6:	a0 e0       	ldi	r26, 0x00	; 0
     8e8:	b0 e0       	ldi	r27, 0x00	; 0
     8ea:	17 c0       	rjmp	.+46     	; 0x91a <__clzsi2+0x64>
     8ec:	80 e0       	ldi	r24, 0x00	; 0
     8ee:	90 e0       	ldi	r25, 0x00	; 0
     8f0:	a0 e0       	ldi	r26, 0x00	; 0
     8f2:	b0 e0       	ldi	r27, 0x00	; 0
     8f4:	12 c0       	rjmp	.+36     	; 0x91a <__clzsi2+0x64>
     8f6:	80 e0       	ldi	r24, 0x00	; 0
     8f8:	e8 16       	cp	r14, r24
     8fa:	80 e0       	ldi	r24, 0x00	; 0
     8fc:	f8 06       	cpc	r15, r24
     8fe:	80 e0       	ldi	r24, 0x00	; 0
     900:	08 07       	cpc	r16, r24
     902:	81 e0       	ldi	r24, 0x01	; 1
     904:	18 07       	cpc	r17, r24
     906:	28 f0       	brcs	.+10     	; 0x912 <__clzsi2+0x5c>
     908:	88 e1       	ldi	r24, 0x18	; 24
     90a:	90 e0       	ldi	r25, 0x00	; 0
     90c:	a0 e0       	ldi	r26, 0x00	; 0
     90e:	b0 e0       	ldi	r27, 0x00	; 0
     910:	04 c0       	rjmp	.+8      	; 0x91a <__clzsi2+0x64>
     912:	80 e1       	ldi	r24, 0x10	; 16
     914:	90 e0       	ldi	r25, 0x00	; 0
     916:	a0 e0       	ldi	r26, 0x00	; 0
     918:	b0 e0       	ldi	r27, 0x00	; 0
     91a:	20 e2       	ldi	r18, 0x20	; 32
     91c:	30 e0       	ldi	r19, 0x00	; 0
     91e:	40 e0       	ldi	r20, 0x00	; 0
     920:	50 e0       	ldi	r21, 0x00	; 0
     922:	28 1b       	sub	r18, r24
     924:	39 0b       	sbc	r19, r25
     926:	4a 0b       	sbc	r20, r26
     928:	5b 0b       	sbc	r21, r27
     92a:	04 c0       	rjmp	.+8      	; 0x934 <__clzsi2+0x7e>
     92c:	16 95       	lsr	r17
     92e:	07 95       	ror	r16
     930:	f7 94       	ror	r15
     932:	e7 94       	ror	r14
     934:	8a 95       	dec	r24
     936:	d2 f7       	brpl	.-12     	; 0x92c <__clzsi2+0x76>
     938:	f7 01       	movw	r30, r14
     93a:	e0 59       	subi	r30, 0x90	; 144
     93c:	ff 4f       	sbci	r31, 0xFF	; 255
     93e:	80 81       	ld	r24, Z
     940:	28 1b       	sub	r18, r24
     942:	31 09       	sbc	r19, r1
     944:	41 09       	sbc	r20, r1
     946:	51 09       	sbc	r21, r1
     948:	c9 01       	movw	r24, r18
     94a:	1f 91       	pop	r17
     94c:	0f 91       	pop	r16
     94e:	ff 90       	pop	r15
     950:	ef 90       	pop	r14
     952:	08 95       	ret

00000954 <__pack_f>:
     954:	df 92       	push	r13
     956:	ef 92       	push	r14
     958:	ff 92       	push	r15
     95a:	0f 93       	push	r16
     95c:	1f 93       	push	r17
     95e:	fc 01       	movw	r30, r24
     960:	e4 80       	ldd	r14, Z+4	; 0x04
     962:	f5 80       	ldd	r15, Z+5	; 0x05
     964:	06 81       	ldd	r16, Z+6	; 0x06
     966:	17 81       	ldd	r17, Z+7	; 0x07
     968:	d1 80       	ldd	r13, Z+1	; 0x01
     96a:	80 81       	ld	r24, Z
     96c:	82 30       	cpi	r24, 0x02	; 2
     96e:	48 f4       	brcc	.+18     	; 0x982 <__pack_f+0x2e>
     970:	80 e0       	ldi	r24, 0x00	; 0
     972:	90 e0       	ldi	r25, 0x00	; 0
     974:	a0 e1       	ldi	r26, 0x10	; 16
     976:	b0 e0       	ldi	r27, 0x00	; 0
     978:	e8 2a       	or	r14, r24
     97a:	f9 2a       	or	r15, r25
     97c:	0a 2b       	or	r16, r26
     97e:	1b 2b       	or	r17, r27
     980:	a5 c0       	rjmp	.+330    	; 0xacc <__pack_f+0x178>
     982:	84 30       	cpi	r24, 0x04	; 4
     984:	09 f4       	brne	.+2      	; 0x988 <__pack_f+0x34>
     986:	9f c0       	rjmp	.+318    	; 0xac6 <__pack_f+0x172>
     988:	82 30       	cpi	r24, 0x02	; 2
     98a:	21 f4       	brne	.+8      	; 0x994 <__pack_f+0x40>
     98c:	ee 24       	eor	r14, r14
     98e:	ff 24       	eor	r15, r15
     990:	87 01       	movw	r16, r14
     992:	05 c0       	rjmp	.+10     	; 0x99e <__pack_f+0x4a>
     994:	e1 14       	cp	r14, r1
     996:	f1 04       	cpc	r15, r1
     998:	01 05       	cpc	r16, r1
     99a:	11 05       	cpc	r17, r1
     99c:	19 f4       	brne	.+6      	; 0x9a4 <__pack_f+0x50>
     99e:	e0 e0       	ldi	r30, 0x00	; 0
     9a0:	f0 e0       	ldi	r31, 0x00	; 0
     9a2:	96 c0       	rjmp	.+300    	; 0xad0 <__pack_f+0x17c>
     9a4:	62 81       	ldd	r22, Z+2	; 0x02
     9a6:	73 81       	ldd	r23, Z+3	; 0x03
     9a8:	9f ef       	ldi	r25, 0xFF	; 255
     9aa:	62 38       	cpi	r22, 0x82	; 130
     9ac:	79 07       	cpc	r23, r25
     9ae:	0c f0       	brlt	.+2      	; 0x9b2 <__pack_f+0x5e>
     9b0:	5b c0       	rjmp	.+182    	; 0xa68 <__pack_f+0x114>
     9b2:	22 e8       	ldi	r18, 0x82	; 130
     9b4:	3f ef       	ldi	r19, 0xFF	; 255
     9b6:	26 1b       	sub	r18, r22
     9b8:	37 0b       	sbc	r19, r23
     9ba:	2a 31       	cpi	r18, 0x1A	; 26
     9bc:	31 05       	cpc	r19, r1
     9be:	2c f0       	brlt	.+10     	; 0x9ca <__pack_f+0x76>
     9c0:	20 e0       	ldi	r18, 0x00	; 0
     9c2:	30 e0       	ldi	r19, 0x00	; 0
     9c4:	40 e0       	ldi	r20, 0x00	; 0
     9c6:	50 e0       	ldi	r21, 0x00	; 0
     9c8:	2a c0       	rjmp	.+84     	; 0xa1e <__pack_f+0xca>
     9ca:	b8 01       	movw	r22, r16
     9cc:	a7 01       	movw	r20, r14
     9ce:	02 2e       	mov	r0, r18
     9d0:	04 c0       	rjmp	.+8      	; 0x9da <__pack_f+0x86>
     9d2:	76 95       	lsr	r23
     9d4:	67 95       	ror	r22
     9d6:	57 95       	ror	r21
     9d8:	47 95       	ror	r20
     9da:	0a 94       	dec	r0
     9dc:	d2 f7       	brpl	.-12     	; 0x9d2 <__pack_f+0x7e>
     9de:	81 e0       	ldi	r24, 0x01	; 1
     9e0:	90 e0       	ldi	r25, 0x00	; 0
     9e2:	a0 e0       	ldi	r26, 0x00	; 0
     9e4:	b0 e0       	ldi	r27, 0x00	; 0
     9e6:	04 c0       	rjmp	.+8      	; 0x9f0 <__pack_f+0x9c>
     9e8:	88 0f       	add	r24, r24
     9ea:	99 1f       	adc	r25, r25
     9ec:	aa 1f       	adc	r26, r26
     9ee:	bb 1f       	adc	r27, r27
     9f0:	2a 95       	dec	r18
     9f2:	d2 f7       	brpl	.-12     	; 0x9e8 <__pack_f+0x94>
     9f4:	01 97       	sbiw	r24, 0x01	; 1
     9f6:	a1 09       	sbc	r26, r1
     9f8:	b1 09       	sbc	r27, r1
     9fa:	8e 21       	and	r24, r14
     9fc:	9f 21       	and	r25, r15
     9fe:	a0 23       	and	r26, r16
     a00:	b1 23       	and	r27, r17
     a02:	00 97       	sbiw	r24, 0x00	; 0
     a04:	a1 05       	cpc	r26, r1
     a06:	b1 05       	cpc	r27, r1
     a08:	21 f0       	breq	.+8      	; 0xa12 <__pack_f+0xbe>
     a0a:	81 e0       	ldi	r24, 0x01	; 1
     a0c:	90 e0       	ldi	r25, 0x00	; 0
     a0e:	a0 e0       	ldi	r26, 0x00	; 0
     a10:	b0 e0       	ldi	r27, 0x00	; 0
     a12:	9a 01       	movw	r18, r20
     a14:	ab 01       	movw	r20, r22
     a16:	28 2b       	or	r18, r24
     a18:	39 2b       	or	r19, r25
     a1a:	4a 2b       	or	r20, r26
     a1c:	5b 2b       	or	r21, r27
     a1e:	da 01       	movw	r26, r20
     a20:	c9 01       	movw	r24, r18
     a22:	8f 77       	andi	r24, 0x7F	; 127
     a24:	90 70       	andi	r25, 0x00	; 0
     a26:	a0 70       	andi	r26, 0x00	; 0
     a28:	b0 70       	andi	r27, 0x00	; 0
     a2a:	80 34       	cpi	r24, 0x40	; 64
     a2c:	91 05       	cpc	r25, r1
     a2e:	a1 05       	cpc	r26, r1
     a30:	b1 05       	cpc	r27, r1
     a32:	39 f4       	brne	.+14     	; 0xa42 <__pack_f+0xee>
     a34:	27 ff       	sbrs	r18, 7
     a36:	09 c0       	rjmp	.+18     	; 0xa4a <__pack_f+0xf6>
     a38:	20 5c       	subi	r18, 0xC0	; 192
     a3a:	3f 4f       	sbci	r19, 0xFF	; 255
     a3c:	4f 4f       	sbci	r20, 0xFF	; 255
     a3e:	5f 4f       	sbci	r21, 0xFF	; 255
     a40:	04 c0       	rjmp	.+8      	; 0xa4a <__pack_f+0xf6>
     a42:	21 5c       	subi	r18, 0xC1	; 193
     a44:	3f 4f       	sbci	r19, 0xFF	; 255
     a46:	4f 4f       	sbci	r20, 0xFF	; 255
     a48:	5f 4f       	sbci	r21, 0xFF	; 255
     a4a:	e0 e0       	ldi	r30, 0x00	; 0
     a4c:	f0 e0       	ldi	r31, 0x00	; 0
     a4e:	20 30       	cpi	r18, 0x00	; 0
     a50:	a0 e0       	ldi	r26, 0x00	; 0
     a52:	3a 07       	cpc	r19, r26
     a54:	a0 e0       	ldi	r26, 0x00	; 0
     a56:	4a 07       	cpc	r20, r26
     a58:	a0 e4       	ldi	r26, 0x40	; 64
     a5a:	5a 07       	cpc	r21, r26
     a5c:	10 f0       	brcs	.+4      	; 0xa62 <__pack_f+0x10e>
     a5e:	e1 e0       	ldi	r30, 0x01	; 1
     a60:	f0 e0       	ldi	r31, 0x00	; 0
     a62:	79 01       	movw	r14, r18
     a64:	8a 01       	movw	r16, r20
     a66:	27 c0       	rjmp	.+78     	; 0xab6 <__pack_f+0x162>
     a68:	60 38       	cpi	r22, 0x80	; 128
     a6a:	71 05       	cpc	r23, r1
     a6c:	64 f5       	brge	.+88     	; 0xac6 <__pack_f+0x172>
     a6e:	fb 01       	movw	r30, r22
     a70:	e1 58       	subi	r30, 0x81	; 129
     a72:	ff 4f       	sbci	r31, 0xFF	; 255
     a74:	d8 01       	movw	r26, r16
     a76:	c7 01       	movw	r24, r14
     a78:	8f 77       	andi	r24, 0x7F	; 127
     a7a:	90 70       	andi	r25, 0x00	; 0
     a7c:	a0 70       	andi	r26, 0x00	; 0
     a7e:	b0 70       	andi	r27, 0x00	; 0
     a80:	80 34       	cpi	r24, 0x40	; 64
     a82:	91 05       	cpc	r25, r1
     a84:	a1 05       	cpc	r26, r1
     a86:	b1 05       	cpc	r27, r1
     a88:	39 f4       	brne	.+14     	; 0xa98 <__pack_f+0x144>
     a8a:	e7 fe       	sbrs	r14, 7
     a8c:	0d c0       	rjmp	.+26     	; 0xaa8 <__pack_f+0x154>
     a8e:	80 e4       	ldi	r24, 0x40	; 64
     a90:	90 e0       	ldi	r25, 0x00	; 0
     a92:	a0 e0       	ldi	r26, 0x00	; 0
     a94:	b0 e0       	ldi	r27, 0x00	; 0
     a96:	04 c0       	rjmp	.+8      	; 0xaa0 <__pack_f+0x14c>
     a98:	8f e3       	ldi	r24, 0x3F	; 63
     a9a:	90 e0       	ldi	r25, 0x00	; 0
     a9c:	a0 e0       	ldi	r26, 0x00	; 0
     a9e:	b0 e0       	ldi	r27, 0x00	; 0
     aa0:	e8 0e       	add	r14, r24
     aa2:	f9 1e       	adc	r15, r25
     aa4:	0a 1f       	adc	r16, r26
     aa6:	1b 1f       	adc	r17, r27
     aa8:	17 ff       	sbrs	r17, 7
     aaa:	05 c0       	rjmp	.+10     	; 0xab6 <__pack_f+0x162>
     aac:	16 95       	lsr	r17
     aae:	07 95       	ror	r16
     ab0:	f7 94       	ror	r15
     ab2:	e7 94       	ror	r14
     ab4:	31 96       	adiw	r30, 0x01	; 1
     ab6:	87 e0       	ldi	r24, 0x07	; 7
     ab8:	16 95       	lsr	r17
     aba:	07 95       	ror	r16
     abc:	f7 94       	ror	r15
     abe:	e7 94       	ror	r14
     ac0:	8a 95       	dec	r24
     ac2:	d1 f7       	brne	.-12     	; 0xab8 <__pack_f+0x164>
     ac4:	05 c0       	rjmp	.+10     	; 0xad0 <__pack_f+0x17c>
     ac6:	ee 24       	eor	r14, r14
     ac8:	ff 24       	eor	r15, r15
     aca:	87 01       	movw	r16, r14
     acc:	ef ef       	ldi	r30, 0xFF	; 255
     ace:	f0 e0       	ldi	r31, 0x00	; 0
     ad0:	6e 2f       	mov	r22, r30
     ad2:	67 95       	ror	r22
     ad4:	66 27       	eor	r22, r22
     ad6:	67 95       	ror	r22
     ad8:	90 2f       	mov	r25, r16
     ada:	9f 77       	andi	r25, 0x7F	; 127
     adc:	d7 94       	ror	r13
     ade:	dd 24       	eor	r13, r13
     ae0:	d7 94       	ror	r13
     ae2:	8e 2f       	mov	r24, r30
     ae4:	86 95       	lsr	r24
     ae6:	49 2f       	mov	r20, r25
     ae8:	46 2b       	or	r20, r22
     aea:	58 2f       	mov	r21, r24
     aec:	5d 29       	or	r21, r13
     aee:	b7 01       	movw	r22, r14
     af0:	ca 01       	movw	r24, r20
     af2:	1f 91       	pop	r17
     af4:	0f 91       	pop	r16
     af6:	ff 90       	pop	r15
     af8:	ef 90       	pop	r14
     afa:	df 90       	pop	r13
     afc:	08 95       	ret

00000afe <__unpack_f>:
     afe:	fc 01       	movw	r30, r24
     b00:	db 01       	movw	r26, r22
     b02:	40 81       	ld	r20, Z
     b04:	51 81       	ldd	r21, Z+1	; 0x01
     b06:	22 81       	ldd	r18, Z+2	; 0x02
     b08:	62 2f       	mov	r22, r18
     b0a:	6f 77       	andi	r22, 0x7F	; 127
     b0c:	70 e0       	ldi	r23, 0x00	; 0
     b0e:	22 1f       	adc	r18, r18
     b10:	22 27       	eor	r18, r18
     b12:	22 1f       	adc	r18, r18
     b14:	93 81       	ldd	r25, Z+3	; 0x03
     b16:	89 2f       	mov	r24, r25
     b18:	88 0f       	add	r24, r24
     b1a:	82 2b       	or	r24, r18
     b1c:	28 2f       	mov	r18, r24
     b1e:	30 e0       	ldi	r19, 0x00	; 0
     b20:	99 1f       	adc	r25, r25
     b22:	99 27       	eor	r25, r25
     b24:	99 1f       	adc	r25, r25
     b26:	11 96       	adiw	r26, 0x01	; 1
     b28:	9c 93       	st	X, r25
     b2a:	11 97       	sbiw	r26, 0x01	; 1
     b2c:	21 15       	cp	r18, r1
     b2e:	31 05       	cpc	r19, r1
     b30:	a9 f5       	brne	.+106    	; 0xb9c <__unpack_f+0x9e>
     b32:	41 15       	cp	r20, r1
     b34:	51 05       	cpc	r21, r1
     b36:	61 05       	cpc	r22, r1
     b38:	71 05       	cpc	r23, r1
     b3a:	11 f4       	brne	.+4      	; 0xb40 <__unpack_f+0x42>
     b3c:	82 e0       	ldi	r24, 0x02	; 2
     b3e:	37 c0       	rjmp	.+110    	; 0xbae <__unpack_f+0xb0>
     b40:	82 e8       	ldi	r24, 0x82	; 130
     b42:	9f ef       	ldi	r25, 0xFF	; 255
     b44:	13 96       	adiw	r26, 0x03	; 3
     b46:	9c 93       	st	X, r25
     b48:	8e 93       	st	-X, r24
     b4a:	12 97       	sbiw	r26, 0x02	; 2
     b4c:	9a 01       	movw	r18, r20
     b4e:	ab 01       	movw	r20, r22
     b50:	67 e0       	ldi	r22, 0x07	; 7
     b52:	22 0f       	add	r18, r18
     b54:	33 1f       	adc	r19, r19
     b56:	44 1f       	adc	r20, r20
     b58:	55 1f       	adc	r21, r21
     b5a:	6a 95       	dec	r22
     b5c:	d1 f7       	brne	.-12     	; 0xb52 <__unpack_f+0x54>
     b5e:	83 e0       	ldi	r24, 0x03	; 3
     b60:	8c 93       	st	X, r24
     b62:	0d c0       	rjmp	.+26     	; 0xb7e <__unpack_f+0x80>
     b64:	22 0f       	add	r18, r18
     b66:	33 1f       	adc	r19, r19
     b68:	44 1f       	adc	r20, r20
     b6a:	55 1f       	adc	r21, r21
     b6c:	12 96       	adiw	r26, 0x02	; 2
     b6e:	8d 91       	ld	r24, X+
     b70:	9c 91       	ld	r25, X
     b72:	13 97       	sbiw	r26, 0x03	; 3
     b74:	01 97       	sbiw	r24, 0x01	; 1
     b76:	13 96       	adiw	r26, 0x03	; 3
     b78:	9c 93       	st	X, r25
     b7a:	8e 93       	st	-X, r24
     b7c:	12 97       	sbiw	r26, 0x02	; 2
     b7e:	20 30       	cpi	r18, 0x00	; 0
     b80:	80 e0       	ldi	r24, 0x00	; 0
     b82:	38 07       	cpc	r19, r24
     b84:	80 e0       	ldi	r24, 0x00	; 0
     b86:	48 07       	cpc	r20, r24
     b88:	80 e4       	ldi	r24, 0x40	; 64
     b8a:	58 07       	cpc	r21, r24
     b8c:	58 f3       	brcs	.-42     	; 0xb64 <__unpack_f+0x66>
     b8e:	14 96       	adiw	r26, 0x04	; 4
     b90:	2d 93       	st	X+, r18
     b92:	3d 93       	st	X+, r19
     b94:	4d 93       	st	X+, r20
     b96:	5c 93       	st	X, r21
     b98:	17 97       	sbiw	r26, 0x07	; 7
     b9a:	08 95       	ret
     b9c:	2f 3f       	cpi	r18, 0xFF	; 255
     b9e:	31 05       	cpc	r19, r1
     ba0:	79 f4       	brne	.+30     	; 0xbc0 <__unpack_f+0xc2>
     ba2:	41 15       	cp	r20, r1
     ba4:	51 05       	cpc	r21, r1
     ba6:	61 05       	cpc	r22, r1
     ba8:	71 05       	cpc	r23, r1
     baa:	19 f4       	brne	.+6      	; 0xbb2 <__unpack_f+0xb4>
     bac:	84 e0       	ldi	r24, 0x04	; 4
     bae:	8c 93       	st	X, r24
     bb0:	08 95       	ret
     bb2:	64 ff       	sbrs	r22, 4
     bb4:	03 c0       	rjmp	.+6      	; 0xbbc <__unpack_f+0xbe>
     bb6:	81 e0       	ldi	r24, 0x01	; 1
     bb8:	8c 93       	st	X, r24
     bba:	12 c0       	rjmp	.+36     	; 0xbe0 <__unpack_f+0xe2>
     bbc:	1c 92       	st	X, r1
     bbe:	10 c0       	rjmp	.+32     	; 0xbe0 <__unpack_f+0xe2>
     bc0:	2f 57       	subi	r18, 0x7F	; 127
     bc2:	30 40       	sbci	r19, 0x00	; 0
     bc4:	13 96       	adiw	r26, 0x03	; 3
     bc6:	3c 93       	st	X, r19
     bc8:	2e 93       	st	-X, r18
     bca:	12 97       	sbiw	r26, 0x02	; 2
     bcc:	83 e0       	ldi	r24, 0x03	; 3
     bce:	8c 93       	st	X, r24
     bd0:	87 e0       	ldi	r24, 0x07	; 7
     bd2:	44 0f       	add	r20, r20
     bd4:	55 1f       	adc	r21, r21
     bd6:	66 1f       	adc	r22, r22
     bd8:	77 1f       	adc	r23, r23
     bda:	8a 95       	dec	r24
     bdc:	d1 f7       	brne	.-12     	; 0xbd2 <__unpack_f+0xd4>
     bde:	70 64       	ori	r23, 0x40	; 64
     be0:	14 96       	adiw	r26, 0x04	; 4
     be2:	4d 93       	st	X+, r20
     be4:	5d 93       	st	X+, r21
     be6:	6d 93       	st	X+, r22
     be8:	7c 93       	st	X, r23
     bea:	17 97       	sbiw	r26, 0x07	; 7
     bec:	08 95       	ret

00000bee <__fpcmp_parts_f>:
     bee:	1f 93       	push	r17
     bf0:	dc 01       	movw	r26, r24
     bf2:	fb 01       	movw	r30, r22
     bf4:	9c 91       	ld	r25, X
     bf6:	92 30       	cpi	r25, 0x02	; 2
     bf8:	08 f4       	brcc	.+2      	; 0xbfc <__fpcmp_parts_f+0xe>
     bfa:	47 c0       	rjmp	.+142    	; 0xc8a <__fpcmp_parts_f+0x9c>
     bfc:	80 81       	ld	r24, Z
     bfe:	82 30       	cpi	r24, 0x02	; 2
     c00:	08 f4       	brcc	.+2      	; 0xc04 <__fpcmp_parts_f+0x16>
     c02:	43 c0       	rjmp	.+134    	; 0xc8a <__fpcmp_parts_f+0x9c>
     c04:	94 30       	cpi	r25, 0x04	; 4
     c06:	51 f4       	brne	.+20     	; 0xc1c <__fpcmp_parts_f+0x2e>
     c08:	11 96       	adiw	r26, 0x01	; 1
     c0a:	1c 91       	ld	r17, X
     c0c:	84 30       	cpi	r24, 0x04	; 4
     c0e:	99 f5       	brne	.+102    	; 0xc76 <__fpcmp_parts_f+0x88>
     c10:	81 81       	ldd	r24, Z+1	; 0x01
     c12:	68 2f       	mov	r22, r24
     c14:	70 e0       	ldi	r23, 0x00	; 0
     c16:	61 1b       	sub	r22, r17
     c18:	71 09       	sbc	r23, r1
     c1a:	3f c0       	rjmp	.+126    	; 0xc9a <__fpcmp_parts_f+0xac>
     c1c:	84 30       	cpi	r24, 0x04	; 4
     c1e:	21 f0       	breq	.+8      	; 0xc28 <__fpcmp_parts_f+0x3a>
     c20:	92 30       	cpi	r25, 0x02	; 2
     c22:	31 f4       	brne	.+12     	; 0xc30 <__fpcmp_parts_f+0x42>
     c24:	82 30       	cpi	r24, 0x02	; 2
     c26:	b9 f1       	breq	.+110    	; 0xc96 <__fpcmp_parts_f+0xa8>
     c28:	81 81       	ldd	r24, Z+1	; 0x01
     c2a:	88 23       	and	r24, r24
     c2c:	89 f1       	breq	.+98     	; 0xc90 <__fpcmp_parts_f+0xa2>
     c2e:	2d c0       	rjmp	.+90     	; 0xc8a <__fpcmp_parts_f+0x9c>
     c30:	11 96       	adiw	r26, 0x01	; 1
     c32:	1c 91       	ld	r17, X
     c34:	11 97       	sbiw	r26, 0x01	; 1
     c36:	82 30       	cpi	r24, 0x02	; 2
     c38:	f1 f0       	breq	.+60     	; 0xc76 <__fpcmp_parts_f+0x88>
     c3a:	81 81       	ldd	r24, Z+1	; 0x01
     c3c:	18 17       	cp	r17, r24
     c3e:	d9 f4       	brne	.+54     	; 0xc76 <__fpcmp_parts_f+0x88>
     c40:	12 96       	adiw	r26, 0x02	; 2
     c42:	2d 91       	ld	r18, X+
     c44:	3c 91       	ld	r19, X
     c46:	13 97       	sbiw	r26, 0x03	; 3
     c48:	82 81       	ldd	r24, Z+2	; 0x02
     c4a:	93 81       	ldd	r25, Z+3	; 0x03
     c4c:	82 17       	cp	r24, r18
     c4e:	93 07       	cpc	r25, r19
     c50:	94 f0       	brlt	.+36     	; 0xc76 <__fpcmp_parts_f+0x88>
     c52:	28 17       	cp	r18, r24
     c54:	39 07       	cpc	r19, r25
     c56:	bc f0       	brlt	.+46     	; 0xc86 <__fpcmp_parts_f+0x98>
     c58:	14 96       	adiw	r26, 0x04	; 4
     c5a:	8d 91       	ld	r24, X+
     c5c:	9d 91       	ld	r25, X+
     c5e:	0d 90       	ld	r0, X+
     c60:	bc 91       	ld	r27, X
     c62:	a0 2d       	mov	r26, r0
     c64:	24 81       	ldd	r18, Z+4	; 0x04
     c66:	35 81       	ldd	r19, Z+5	; 0x05
     c68:	46 81       	ldd	r20, Z+6	; 0x06
     c6a:	57 81       	ldd	r21, Z+7	; 0x07
     c6c:	28 17       	cp	r18, r24
     c6e:	39 07       	cpc	r19, r25
     c70:	4a 07       	cpc	r20, r26
     c72:	5b 07       	cpc	r21, r27
     c74:	18 f4       	brcc	.+6      	; 0xc7c <__fpcmp_parts_f+0x8e>
     c76:	11 23       	and	r17, r17
     c78:	41 f0       	breq	.+16     	; 0xc8a <__fpcmp_parts_f+0x9c>
     c7a:	0a c0       	rjmp	.+20     	; 0xc90 <__fpcmp_parts_f+0xa2>
     c7c:	82 17       	cp	r24, r18
     c7e:	93 07       	cpc	r25, r19
     c80:	a4 07       	cpc	r26, r20
     c82:	b5 07       	cpc	r27, r21
     c84:	40 f4       	brcc	.+16     	; 0xc96 <__fpcmp_parts_f+0xa8>
     c86:	11 23       	and	r17, r17
     c88:	19 f0       	breq	.+6      	; 0xc90 <__fpcmp_parts_f+0xa2>
     c8a:	61 e0       	ldi	r22, 0x01	; 1
     c8c:	70 e0       	ldi	r23, 0x00	; 0
     c8e:	05 c0       	rjmp	.+10     	; 0xc9a <__fpcmp_parts_f+0xac>
     c90:	6f ef       	ldi	r22, 0xFF	; 255
     c92:	7f ef       	ldi	r23, 0xFF	; 255
     c94:	02 c0       	rjmp	.+4      	; 0xc9a <__fpcmp_parts_f+0xac>
     c96:	60 e0       	ldi	r22, 0x00	; 0
     c98:	70 e0       	ldi	r23, 0x00	; 0
     c9a:	cb 01       	movw	r24, r22
     c9c:	1f 91       	pop	r17
     c9e:	08 95       	ret

00000ca0 <CLCD_voidSendData>:
#include "CLCD_Config.h"
#include "CLCD_Private.h"


void CLCD_voidSendData(u8 Copy_u8Data)
{
     ca0:	df 93       	push	r29
     ca2:	cf 93       	push	r28
     ca4:	cd b7       	in	r28, 0x3d	; 61
     ca6:	de b7       	in	r29, 0x3e	; 62
     ca8:	2f 97       	sbiw	r28, 0x0f	; 15
     caa:	0f b6       	in	r0, 0x3f	; 63
     cac:	f8 94       	cli
     cae:	de bf       	out	0x3e, r29	; 62
     cb0:	0f be       	out	0x3f, r0	; 63
     cb2:	cd bf       	out	0x3d, r28	; 61
     cb4:	8f 87       	std	Y+15, r24	; 0x0f
    //Set rs pin to high for send data
    DIO_voidSetPinValue(CLCD_CTRL_PORT , CLCD_RS_PORT , DIO_u8HIGH);
     cb6:	82 e0       	ldi	r24, 0x02	; 2
     cb8:	60 e0       	ldi	r22, 0x00	; 0
     cba:	41 e0       	ldi	r20, 0x01	; 1
     cbc:	0e 94 ee 0d 	call	0x1bdc	; 0x1bdc <DIO_voidSetPinValue>

    //Set rw pin to low for write
    DIO_voidSetPinValue(CLCD_CTRL_PORT , CLCD_RW_PORT , DIO_u8LOW);
     cc0:	82 e0       	ldi	r24, 0x02	; 2
     cc2:	61 e0       	ldi	r22, 0x01	; 1
     cc4:	40 e0       	ldi	r20, 0x00	; 0
     cc6:	0e 94 ee 0d 	call	0x1bdc	; 0x1bdc <DIO_voidSetPinValue>

    //Put data
    DIO_voidSetPortValue(CLCD_DATA_PORT , Copy_u8Data);
     cca:	80 e0       	ldi	r24, 0x00	; 0
     ccc:	6f 85       	ldd	r22, Y+15	; 0x0f
     cce:	0e 94 a9 0f 	call	0x1f52	; 0x1f52 <DIO_voidSetPortValue>

    //generate enable pulse
    DIO_voidSetPinValue(CLCD_CTRL_PORT , CLCD_E_PORT , DIO_u8HIGH);
     cd2:	82 e0       	ldi	r24, 0x02	; 2
     cd4:	62 e0       	ldi	r22, 0x02	; 2
     cd6:	41 e0       	ldi	r20, 0x01	; 1
     cd8:	0e 94 ee 0d 	call	0x1bdc	; 0x1bdc <DIO_voidSetPinValue>
     cdc:	80 e0       	ldi	r24, 0x00	; 0
     cde:	90 e0       	ldi	r25, 0x00	; 0
     ce0:	a0 e0       	ldi	r26, 0x00	; 0
     ce2:	b0 e4       	ldi	r27, 0x40	; 64
     ce4:	8b 87       	std	Y+11, r24	; 0x0b
     ce6:	9c 87       	std	Y+12, r25	; 0x0c
     ce8:	ad 87       	std	Y+13, r26	; 0x0d
     cea:	be 87       	std	Y+14, r27	; 0x0e
 */
void
_delay_ms(double __ms)
{
	uint16_t __ticks;
	double __tmp = ((F_CPU) / 4e3) * __ms;
     cec:	6b 85       	ldd	r22, Y+11	; 0x0b
     cee:	7c 85       	ldd	r23, Y+12	; 0x0c
     cf0:	8d 85       	ldd	r24, Y+13	; 0x0d
     cf2:	9e 85       	ldd	r25, Y+14	; 0x0e
     cf4:	20 e0       	ldi	r18, 0x00	; 0
     cf6:	30 e0       	ldi	r19, 0x00	; 0
     cf8:	4a ef       	ldi	r20, 0xFA	; 250
     cfa:	54 e4       	ldi	r21, 0x44	; 68
     cfc:	0e 94 1f 02 	call	0x43e	; 0x43e <__mulsf3>
     d00:	dc 01       	movw	r26, r24
     d02:	cb 01       	movw	r24, r22
     d04:	8f 83       	std	Y+7, r24	; 0x07
     d06:	98 87       	std	Y+8, r25	; 0x08
     d08:	a9 87       	std	Y+9, r26	; 0x09
     d0a:	ba 87       	std	Y+10, r27	; 0x0a
	if (__tmp < 1.0)
     d0c:	6f 81       	ldd	r22, Y+7	; 0x07
     d0e:	78 85       	ldd	r23, Y+8	; 0x08
     d10:	89 85       	ldd	r24, Y+9	; 0x09
     d12:	9a 85       	ldd	r25, Y+10	; 0x0a
     d14:	20 e0       	ldi	r18, 0x00	; 0
     d16:	30 e0       	ldi	r19, 0x00	; 0
     d18:	40 e8       	ldi	r20, 0x80	; 128
     d1a:	5f e3       	ldi	r21, 0x3F	; 63
     d1c:	0e 94 79 03 	call	0x6f2	; 0x6f2 <__ltsf2>
     d20:	88 23       	and	r24, r24
     d22:	2c f4       	brge	.+10     	; 0xd2e <CLCD_voidSendData+0x8e>
		__ticks = 1;
     d24:	81 e0       	ldi	r24, 0x01	; 1
     d26:	90 e0       	ldi	r25, 0x00	; 0
     d28:	9e 83       	std	Y+6, r25	; 0x06
     d2a:	8d 83       	std	Y+5, r24	; 0x05
     d2c:	3f c0       	rjmp	.+126    	; 0xdac <CLCD_voidSendData+0x10c>
	else if (__tmp > 65535)
     d2e:	6f 81       	ldd	r22, Y+7	; 0x07
     d30:	78 85       	ldd	r23, Y+8	; 0x08
     d32:	89 85       	ldd	r24, Y+9	; 0x09
     d34:	9a 85       	ldd	r25, Y+10	; 0x0a
     d36:	20 e0       	ldi	r18, 0x00	; 0
     d38:	3f ef       	ldi	r19, 0xFF	; 255
     d3a:	4f e7       	ldi	r20, 0x7F	; 127
     d3c:	57 e4       	ldi	r21, 0x47	; 71
     d3e:	0e 94 19 03 	call	0x632	; 0x632 <__gtsf2>
     d42:	18 16       	cp	r1, r24
     d44:	4c f5       	brge	.+82     	; 0xd98 <CLCD_voidSendData+0xf8>
	{
		//	__ticks = requested delay in 1/10 ms
		__ticks = (uint16_t) (__ms * 10.0);
     d46:	6b 85       	ldd	r22, Y+11	; 0x0b
     d48:	7c 85       	ldd	r23, Y+12	; 0x0c
     d4a:	8d 85       	ldd	r24, Y+13	; 0x0d
     d4c:	9e 85       	ldd	r25, Y+14	; 0x0e
     d4e:	20 e0       	ldi	r18, 0x00	; 0
     d50:	30 e0       	ldi	r19, 0x00	; 0
     d52:	40 e2       	ldi	r20, 0x20	; 32
     d54:	51 e4       	ldi	r21, 0x41	; 65
     d56:	0e 94 1f 02 	call	0x43e	; 0x43e <__mulsf3>
     d5a:	dc 01       	movw	r26, r24
     d5c:	cb 01       	movw	r24, r22
     d5e:	bc 01       	movw	r22, r24
     d60:	cd 01       	movw	r24, r26
     d62:	0e 94 49 00 	call	0x92	; 0x92 <__fixunssfsi>
     d66:	dc 01       	movw	r26, r24
     d68:	cb 01       	movw	r24, r22
     d6a:	9e 83       	std	Y+6, r25	; 0x06
     d6c:	8d 83       	std	Y+5, r24	; 0x05
     d6e:	0f c0       	rjmp	.+30     	; 0xd8e <CLCD_voidSendData+0xee>
     d70:	88 ec       	ldi	r24, 0xC8	; 200
     d72:	90 e0       	ldi	r25, 0x00	; 0
     d74:	9c 83       	std	Y+4, r25	; 0x04
     d76:	8b 83       	std	Y+3, r24	; 0x03
    milliseconds can be achieved.
 */
void
_delay_loop_2(uint16_t __count)
{
	__asm__ volatile (
     d78:	8b 81       	ldd	r24, Y+3	; 0x03
     d7a:	9c 81       	ldd	r25, Y+4	; 0x04
     d7c:	01 97       	sbiw	r24, 0x01	; 1
     d7e:	f1 f7       	brne	.-4      	; 0xd7c <CLCD_voidSendData+0xdc>
     d80:	9c 83       	std	Y+4, r25	; 0x04
     d82:	8b 83       	std	Y+3, r24	; 0x03
		while(__ticks)
		{
			// wait 1/10 ms
			_delay_loop_2(((F_CPU) / 4e3) / 10);
			__ticks --;
     d84:	8d 81       	ldd	r24, Y+5	; 0x05
     d86:	9e 81       	ldd	r25, Y+6	; 0x06
     d88:	01 97       	sbiw	r24, 0x01	; 1
     d8a:	9e 83       	std	Y+6, r25	; 0x06
     d8c:	8d 83       	std	Y+5, r24	; 0x05
		__ticks = 1;
	else if (__tmp > 65535)
	{
		//	__ticks = requested delay in 1/10 ms
		__ticks = (uint16_t) (__ms * 10.0);
		while(__ticks)
     d8e:	8d 81       	ldd	r24, Y+5	; 0x05
     d90:	9e 81       	ldd	r25, Y+6	; 0x06
     d92:	00 97       	sbiw	r24, 0x00	; 0
     d94:	69 f7       	brne	.-38     	; 0xd70 <CLCD_voidSendData+0xd0>
     d96:	14 c0       	rjmp	.+40     	; 0xdc0 <CLCD_voidSendData+0x120>
			__ticks --;
		}
		return;
	}
	else
		__ticks = (uint16_t)__tmp;
     d98:	6f 81       	ldd	r22, Y+7	; 0x07
     d9a:	78 85       	ldd	r23, Y+8	; 0x08
     d9c:	89 85       	ldd	r24, Y+9	; 0x09
     d9e:	9a 85       	ldd	r25, Y+10	; 0x0a
     da0:	0e 94 49 00 	call	0x92	; 0x92 <__fixunssfsi>
     da4:	dc 01       	movw	r26, r24
     da6:	cb 01       	movw	r24, r22
     da8:	9e 83       	std	Y+6, r25	; 0x06
     daa:	8d 83       	std	Y+5, r24	; 0x05
     dac:	8d 81       	ldd	r24, Y+5	; 0x05
     dae:	9e 81       	ldd	r25, Y+6	; 0x06
     db0:	9a 83       	std	Y+2, r25	; 0x02
     db2:	89 83       	std	Y+1, r24	; 0x01
     db4:	89 81       	ldd	r24, Y+1	; 0x01
     db6:	9a 81       	ldd	r25, Y+2	; 0x02
     db8:	01 97       	sbiw	r24, 0x01	; 1
     dba:	f1 f7       	brne	.-4      	; 0xdb8 <CLCD_voidSendData+0x118>
     dbc:	9a 83       	std	Y+2, r25	; 0x02
     dbe:	89 83       	std	Y+1, r24	; 0x01
    _delay_ms(2);
    DIO_voidSetPinValue(CLCD_CTRL_PORT , CLCD_E_PORT , DIO_u8LOW);
     dc0:	82 e0       	ldi	r24, 0x02	; 2
     dc2:	62 e0       	ldi	r22, 0x02	; 2
     dc4:	40 e0       	ldi	r20, 0x00	; 0
     dc6:	0e 94 ee 0d 	call	0x1bdc	; 0x1bdc <DIO_voidSetPinValue>

}
     dca:	2f 96       	adiw	r28, 0x0f	; 15
     dcc:	0f b6       	in	r0, 0x3f	; 63
     dce:	f8 94       	cli
     dd0:	de bf       	out	0x3e, r29	; 62
     dd2:	0f be       	out	0x3f, r0	; 63
     dd4:	cd bf       	out	0x3d, r28	; 61
     dd6:	cf 91       	pop	r28
     dd8:	df 91       	pop	r29
     dda:	08 95       	ret

00000ddc <CLCD_voidSendCommand>:
void CLCD_voidSendCommand(u8 Copy_u8DCommand)
{
     ddc:	df 93       	push	r29
     dde:	cf 93       	push	r28
     de0:	cd b7       	in	r28, 0x3d	; 61
     de2:	de b7       	in	r29, 0x3e	; 62
     de4:	2f 97       	sbiw	r28, 0x0f	; 15
     de6:	0f b6       	in	r0, 0x3f	; 63
     de8:	f8 94       	cli
     dea:	de bf       	out	0x3e, r29	; 62
     dec:	0f be       	out	0x3f, r0	; 63
     dee:	cd bf       	out	0x3d, r28	; 61
     df0:	8f 87       	std	Y+15, r24	; 0x0f
    //Set rs pin to high for send data
    DIO_voidSetPinValue(CLCD_CTRL_PORT , CLCD_RS_PORT , DIO_u8LOW);
     df2:	82 e0       	ldi	r24, 0x02	; 2
     df4:	60 e0       	ldi	r22, 0x00	; 0
     df6:	40 e0       	ldi	r20, 0x00	; 0
     df8:	0e 94 ee 0d 	call	0x1bdc	; 0x1bdc <DIO_voidSetPinValue>

    //Set rw pin to low for write
    DIO_voidSetPinValue(CLCD_CTRL_PORT , CLCD_RW_PORT , DIO_u8LOW);
     dfc:	82 e0       	ldi	r24, 0x02	; 2
     dfe:	61 e0       	ldi	r22, 0x01	; 1
     e00:	40 e0       	ldi	r20, 0x00	; 0
     e02:	0e 94 ee 0d 	call	0x1bdc	; 0x1bdc <DIO_voidSetPinValue>

    //Put data
    DIO_voidSetPortValue(CLCD_DATA_PORT , Copy_u8DCommand);
     e06:	80 e0       	ldi	r24, 0x00	; 0
     e08:	6f 85       	ldd	r22, Y+15	; 0x0f
     e0a:	0e 94 a9 0f 	call	0x1f52	; 0x1f52 <DIO_voidSetPortValue>

    //generate enable pulse
    DIO_voidSetPinValue(CLCD_CTRL_PORT , CLCD_E_PORT , DIO_u8HIGH);
     e0e:	82 e0       	ldi	r24, 0x02	; 2
     e10:	62 e0       	ldi	r22, 0x02	; 2
     e12:	41 e0       	ldi	r20, 0x01	; 1
     e14:	0e 94 ee 0d 	call	0x1bdc	; 0x1bdc <DIO_voidSetPinValue>
     e18:	80 e0       	ldi	r24, 0x00	; 0
     e1a:	90 e0       	ldi	r25, 0x00	; 0
     e1c:	a0 e0       	ldi	r26, 0x00	; 0
     e1e:	b0 e4       	ldi	r27, 0x40	; 64
     e20:	8b 87       	std	Y+11, r24	; 0x0b
     e22:	9c 87       	std	Y+12, r25	; 0x0c
     e24:	ad 87       	std	Y+13, r26	; 0x0d
     e26:	be 87       	std	Y+14, r27	; 0x0e
 */
void
_delay_ms(double __ms)
{
	uint16_t __ticks;
	double __tmp = ((F_CPU) / 4e3) * __ms;
     e28:	6b 85       	ldd	r22, Y+11	; 0x0b
     e2a:	7c 85       	ldd	r23, Y+12	; 0x0c
     e2c:	8d 85       	ldd	r24, Y+13	; 0x0d
     e2e:	9e 85       	ldd	r25, Y+14	; 0x0e
     e30:	20 e0       	ldi	r18, 0x00	; 0
     e32:	30 e0       	ldi	r19, 0x00	; 0
     e34:	4a ef       	ldi	r20, 0xFA	; 250
     e36:	54 e4       	ldi	r21, 0x44	; 68
     e38:	0e 94 1f 02 	call	0x43e	; 0x43e <__mulsf3>
     e3c:	dc 01       	movw	r26, r24
     e3e:	cb 01       	movw	r24, r22
     e40:	8f 83       	std	Y+7, r24	; 0x07
     e42:	98 87       	std	Y+8, r25	; 0x08
     e44:	a9 87       	std	Y+9, r26	; 0x09
     e46:	ba 87       	std	Y+10, r27	; 0x0a
	if (__tmp < 1.0)
     e48:	6f 81       	ldd	r22, Y+7	; 0x07
     e4a:	78 85       	ldd	r23, Y+8	; 0x08
     e4c:	89 85       	ldd	r24, Y+9	; 0x09
     e4e:	9a 85       	ldd	r25, Y+10	; 0x0a
     e50:	20 e0       	ldi	r18, 0x00	; 0
     e52:	30 e0       	ldi	r19, 0x00	; 0
     e54:	40 e8       	ldi	r20, 0x80	; 128
     e56:	5f e3       	ldi	r21, 0x3F	; 63
     e58:	0e 94 79 03 	call	0x6f2	; 0x6f2 <__ltsf2>
     e5c:	88 23       	and	r24, r24
     e5e:	2c f4       	brge	.+10     	; 0xe6a <CLCD_voidSendCommand+0x8e>
		__ticks = 1;
     e60:	81 e0       	ldi	r24, 0x01	; 1
     e62:	90 e0       	ldi	r25, 0x00	; 0
     e64:	9e 83       	std	Y+6, r25	; 0x06
     e66:	8d 83       	std	Y+5, r24	; 0x05
     e68:	3f c0       	rjmp	.+126    	; 0xee8 <CLCD_voidSendCommand+0x10c>
	else if (__tmp > 65535)
     e6a:	6f 81       	ldd	r22, Y+7	; 0x07
     e6c:	78 85       	ldd	r23, Y+8	; 0x08
     e6e:	89 85       	ldd	r24, Y+9	; 0x09
     e70:	9a 85       	ldd	r25, Y+10	; 0x0a
     e72:	20 e0       	ldi	r18, 0x00	; 0
     e74:	3f ef       	ldi	r19, 0xFF	; 255
     e76:	4f e7       	ldi	r20, 0x7F	; 127
     e78:	57 e4       	ldi	r21, 0x47	; 71
     e7a:	0e 94 19 03 	call	0x632	; 0x632 <__gtsf2>
     e7e:	18 16       	cp	r1, r24
     e80:	4c f5       	brge	.+82     	; 0xed4 <CLCD_voidSendCommand+0xf8>
	{
		//	__ticks = requested delay in 1/10 ms
		__ticks = (uint16_t) (__ms * 10.0);
     e82:	6b 85       	ldd	r22, Y+11	; 0x0b
     e84:	7c 85       	ldd	r23, Y+12	; 0x0c
     e86:	8d 85       	ldd	r24, Y+13	; 0x0d
     e88:	9e 85       	ldd	r25, Y+14	; 0x0e
     e8a:	20 e0       	ldi	r18, 0x00	; 0
     e8c:	30 e0       	ldi	r19, 0x00	; 0
     e8e:	40 e2       	ldi	r20, 0x20	; 32
     e90:	51 e4       	ldi	r21, 0x41	; 65
     e92:	0e 94 1f 02 	call	0x43e	; 0x43e <__mulsf3>
     e96:	dc 01       	movw	r26, r24
     e98:	cb 01       	movw	r24, r22
     e9a:	bc 01       	movw	r22, r24
     e9c:	cd 01       	movw	r24, r26
     e9e:	0e 94 49 00 	call	0x92	; 0x92 <__fixunssfsi>
     ea2:	dc 01       	movw	r26, r24
     ea4:	cb 01       	movw	r24, r22
     ea6:	9e 83       	std	Y+6, r25	; 0x06
     ea8:	8d 83       	std	Y+5, r24	; 0x05
     eaa:	0f c0       	rjmp	.+30     	; 0xeca <CLCD_voidSendCommand+0xee>
     eac:	88 ec       	ldi	r24, 0xC8	; 200
     eae:	90 e0       	ldi	r25, 0x00	; 0
     eb0:	9c 83       	std	Y+4, r25	; 0x04
     eb2:	8b 83       	std	Y+3, r24	; 0x03
     eb4:	8b 81       	ldd	r24, Y+3	; 0x03
     eb6:	9c 81       	ldd	r25, Y+4	; 0x04
     eb8:	01 97       	sbiw	r24, 0x01	; 1
     eba:	f1 f7       	brne	.-4      	; 0xeb8 <CLCD_voidSendCommand+0xdc>
     ebc:	9c 83       	std	Y+4, r25	; 0x04
     ebe:	8b 83       	std	Y+3, r24	; 0x03
		while(__ticks)
		{
			// wait 1/10 ms
			_delay_loop_2(((F_CPU) / 4e3) / 10);
			__ticks --;
     ec0:	8d 81       	ldd	r24, Y+5	; 0x05
     ec2:	9e 81       	ldd	r25, Y+6	; 0x06
     ec4:	01 97       	sbiw	r24, 0x01	; 1
     ec6:	9e 83       	std	Y+6, r25	; 0x06
     ec8:	8d 83       	std	Y+5, r24	; 0x05
		__ticks = 1;
	else if (__tmp > 65535)
	{
		//	__ticks = requested delay in 1/10 ms
		__ticks = (uint16_t) (__ms * 10.0);
		while(__ticks)
     eca:	8d 81       	ldd	r24, Y+5	; 0x05
     ecc:	9e 81       	ldd	r25, Y+6	; 0x06
     ece:	00 97       	sbiw	r24, 0x00	; 0
     ed0:	69 f7       	brne	.-38     	; 0xeac <CLCD_voidSendCommand+0xd0>
     ed2:	14 c0       	rjmp	.+40     	; 0xefc <CLCD_voidSendCommand+0x120>
			__ticks --;
		}
		return;
	}
	else
		__ticks = (uint16_t)__tmp;
     ed4:	6f 81       	ldd	r22, Y+7	; 0x07
     ed6:	78 85       	ldd	r23, Y+8	; 0x08
     ed8:	89 85       	ldd	r24, Y+9	; 0x09
     eda:	9a 85       	ldd	r25, Y+10	; 0x0a
     edc:	0e 94 49 00 	call	0x92	; 0x92 <__fixunssfsi>
     ee0:	dc 01       	movw	r26, r24
     ee2:	cb 01       	movw	r24, r22
     ee4:	9e 83       	std	Y+6, r25	; 0x06
     ee6:	8d 83       	std	Y+5, r24	; 0x05
     ee8:	8d 81       	ldd	r24, Y+5	; 0x05
     eea:	9e 81       	ldd	r25, Y+6	; 0x06
     eec:	9a 83       	std	Y+2, r25	; 0x02
     eee:	89 83       	std	Y+1, r24	; 0x01
     ef0:	89 81       	ldd	r24, Y+1	; 0x01
     ef2:	9a 81       	ldd	r25, Y+2	; 0x02
     ef4:	01 97       	sbiw	r24, 0x01	; 1
     ef6:	f1 f7       	brne	.-4      	; 0xef4 <CLCD_voidSendCommand+0x118>
     ef8:	9a 83       	std	Y+2, r25	; 0x02
     efa:	89 83       	std	Y+1, r24	; 0x01
    _delay_ms(2);
    DIO_voidSetPinValue(CLCD_CTRL_PORT , CLCD_E_PORT , DIO_u8LOW);
     efc:	82 e0       	ldi	r24, 0x02	; 2
     efe:	62 e0       	ldi	r22, 0x02	; 2
     f00:	40 e0       	ldi	r20, 0x00	; 0
     f02:	0e 94 ee 0d 	call	0x1bdc	; 0x1bdc <DIO_voidSetPinValue>
}
     f06:	2f 96       	adiw	r28, 0x0f	; 15
     f08:	0f b6       	in	r0, 0x3f	; 63
     f0a:	f8 94       	cli
     f0c:	de bf       	out	0x3e, r29	; 62
     f0e:	0f be       	out	0x3f, r0	; 63
     f10:	cd bf       	out	0x3d, r28	; 61
     f12:	cf 91       	pop	r28
     f14:	df 91       	pop	r29
     f16:	08 95       	ret

00000f18 <CLCD_voidInit>:

void CLCD_voidInit(void)
{
     f18:	df 93       	push	r29
     f1a:	cf 93       	push	r28
     f1c:	cd b7       	in	r28, 0x3d	; 61
     f1e:	de b7       	in	r29, 0x3e	; 62
     f20:	2e 97       	sbiw	r28, 0x0e	; 14
     f22:	0f b6       	in	r0, 0x3f	; 63
     f24:	f8 94       	cli
     f26:	de bf       	out	0x3e, r29	; 62
     f28:	0f be       	out	0x3f, r0	; 63
     f2a:	cd bf       	out	0x3d, r28	; 61
	DIO_voidSetPortDirection(CLCD_DATA_PORT , DIO_u8PORTOUTPUT);
     f2c:	80 e0       	ldi	r24, 0x00	; 0
     f2e:	6f ef       	ldi	r22, 0xFF	; 255
     f30:	0e 94 68 0f 	call	0x1ed0	; 0x1ed0 <DIO_voidSetPortDirection>

	DIO_voidSetPinDirection(CLCD_CTRL_PORT , CLCD_RS_PORT , DIO_u8OUTPUT);
     f34:	82 e0       	ldi	r24, 0x02	; 2
     f36:	60 e0       	ldi	r22, 0x00	; 0
     f38:	41 e0       	ldi	r20, 0x01	; 1
     f3a:	0e 94 ee 0c 	call	0x19dc	; 0x19dc <DIO_voidSetPinDirection>
	DIO_voidSetPinDirection(CLCD_CTRL_PORT , CLCD_RW_PORT , DIO_u8OUTPUT);
     f3e:	82 e0       	ldi	r24, 0x02	; 2
     f40:	61 e0       	ldi	r22, 0x01	; 1
     f42:	41 e0       	ldi	r20, 0x01	; 1
     f44:	0e 94 ee 0c 	call	0x19dc	; 0x19dc <DIO_voidSetPinDirection>
	DIO_voidSetPinDirection(CLCD_CTRL_PORT , CLCD_E_PORT , DIO_u8OUTPUT);
     f48:	82 e0       	ldi	r24, 0x02	; 2
     f4a:	62 e0       	ldi	r22, 0x02	; 2
     f4c:	41 e0       	ldi	r20, 0x01	; 1
     f4e:	0e 94 ee 0c 	call	0x19dc	; 0x19dc <DIO_voidSetPinDirection>
     f52:	80 e0       	ldi	r24, 0x00	; 0
     f54:	90 e0       	ldi	r25, 0x00	; 0
     f56:	a0 e2       	ldi	r26, 0x20	; 32
     f58:	b2 e4       	ldi	r27, 0x42	; 66
     f5a:	8b 87       	std	Y+11, r24	; 0x0b
     f5c:	9c 87       	std	Y+12, r25	; 0x0c
     f5e:	ad 87       	std	Y+13, r26	; 0x0d
     f60:	be 87       	std	Y+14, r27	; 0x0e
 */
void
_delay_ms(double __ms)
{
	uint16_t __ticks;
	double __tmp = ((F_CPU) / 4e3) * __ms;
     f62:	6b 85       	ldd	r22, Y+11	; 0x0b
     f64:	7c 85       	ldd	r23, Y+12	; 0x0c
     f66:	8d 85       	ldd	r24, Y+13	; 0x0d
     f68:	9e 85       	ldd	r25, Y+14	; 0x0e
     f6a:	20 e0       	ldi	r18, 0x00	; 0
     f6c:	30 e0       	ldi	r19, 0x00	; 0
     f6e:	4a ef       	ldi	r20, 0xFA	; 250
     f70:	54 e4       	ldi	r21, 0x44	; 68
     f72:	0e 94 1f 02 	call	0x43e	; 0x43e <__mulsf3>
     f76:	dc 01       	movw	r26, r24
     f78:	cb 01       	movw	r24, r22
     f7a:	8f 83       	std	Y+7, r24	; 0x07
     f7c:	98 87       	std	Y+8, r25	; 0x08
     f7e:	a9 87       	std	Y+9, r26	; 0x09
     f80:	ba 87       	std	Y+10, r27	; 0x0a
	if (__tmp < 1.0)
     f82:	6f 81       	ldd	r22, Y+7	; 0x07
     f84:	78 85       	ldd	r23, Y+8	; 0x08
     f86:	89 85       	ldd	r24, Y+9	; 0x09
     f88:	9a 85       	ldd	r25, Y+10	; 0x0a
     f8a:	20 e0       	ldi	r18, 0x00	; 0
     f8c:	30 e0       	ldi	r19, 0x00	; 0
     f8e:	40 e8       	ldi	r20, 0x80	; 128
     f90:	5f e3       	ldi	r21, 0x3F	; 63
     f92:	0e 94 79 03 	call	0x6f2	; 0x6f2 <__ltsf2>
     f96:	88 23       	and	r24, r24
     f98:	2c f4       	brge	.+10     	; 0xfa4 <CLCD_voidInit+0x8c>
		__ticks = 1;
     f9a:	81 e0       	ldi	r24, 0x01	; 1
     f9c:	90 e0       	ldi	r25, 0x00	; 0
     f9e:	9e 83       	std	Y+6, r25	; 0x06
     fa0:	8d 83       	std	Y+5, r24	; 0x05
     fa2:	3f c0       	rjmp	.+126    	; 0x1022 <CLCD_voidInit+0x10a>
	else if (__tmp > 65535)
     fa4:	6f 81       	ldd	r22, Y+7	; 0x07
     fa6:	78 85       	ldd	r23, Y+8	; 0x08
     fa8:	89 85       	ldd	r24, Y+9	; 0x09
     faa:	9a 85       	ldd	r25, Y+10	; 0x0a
     fac:	20 e0       	ldi	r18, 0x00	; 0
     fae:	3f ef       	ldi	r19, 0xFF	; 255
     fb0:	4f e7       	ldi	r20, 0x7F	; 127
     fb2:	57 e4       	ldi	r21, 0x47	; 71
     fb4:	0e 94 19 03 	call	0x632	; 0x632 <__gtsf2>
     fb8:	18 16       	cp	r1, r24
     fba:	4c f5       	brge	.+82     	; 0x100e <CLCD_voidInit+0xf6>
	{
		//	__ticks = requested delay in 1/10 ms
		__ticks = (uint16_t) (__ms * 10.0);
     fbc:	6b 85       	ldd	r22, Y+11	; 0x0b
     fbe:	7c 85       	ldd	r23, Y+12	; 0x0c
     fc0:	8d 85       	ldd	r24, Y+13	; 0x0d
     fc2:	9e 85       	ldd	r25, Y+14	; 0x0e
     fc4:	20 e0       	ldi	r18, 0x00	; 0
     fc6:	30 e0       	ldi	r19, 0x00	; 0
     fc8:	40 e2       	ldi	r20, 0x20	; 32
     fca:	51 e4       	ldi	r21, 0x41	; 65
     fcc:	0e 94 1f 02 	call	0x43e	; 0x43e <__mulsf3>
     fd0:	dc 01       	movw	r26, r24
     fd2:	cb 01       	movw	r24, r22
     fd4:	bc 01       	movw	r22, r24
     fd6:	cd 01       	movw	r24, r26
     fd8:	0e 94 49 00 	call	0x92	; 0x92 <__fixunssfsi>
     fdc:	dc 01       	movw	r26, r24
     fde:	cb 01       	movw	r24, r22
     fe0:	9e 83       	std	Y+6, r25	; 0x06
     fe2:	8d 83       	std	Y+5, r24	; 0x05
     fe4:	0f c0       	rjmp	.+30     	; 0x1004 <CLCD_voidInit+0xec>
     fe6:	88 ec       	ldi	r24, 0xC8	; 200
     fe8:	90 e0       	ldi	r25, 0x00	; 0
     fea:	9c 83       	std	Y+4, r25	; 0x04
     fec:	8b 83       	std	Y+3, r24	; 0x03
     fee:	8b 81       	ldd	r24, Y+3	; 0x03
     ff0:	9c 81       	ldd	r25, Y+4	; 0x04
     ff2:	01 97       	sbiw	r24, 0x01	; 1
     ff4:	f1 f7       	brne	.-4      	; 0xff2 <CLCD_voidInit+0xda>
     ff6:	9c 83       	std	Y+4, r25	; 0x04
     ff8:	8b 83       	std	Y+3, r24	; 0x03
		while(__ticks)
		{
			// wait 1/10 ms
			_delay_loop_2(((F_CPU) / 4e3) / 10);
			__ticks --;
     ffa:	8d 81       	ldd	r24, Y+5	; 0x05
     ffc:	9e 81       	ldd	r25, Y+6	; 0x06
     ffe:	01 97       	sbiw	r24, 0x01	; 1
    1000:	9e 83       	std	Y+6, r25	; 0x06
    1002:	8d 83       	std	Y+5, r24	; 0x05
		__ticks = 1;
	else if (__tmp > 65535)
	{
		//	__ticks = requested delay in 1/10 ms
		__ticks = (uint16_t) (__ms * 10.0);
		while(__ticks)
    1004:	8d 81       	ldd	r24, Y+5	; 0x05
    1006:	9e 81       	ldd	r25, Y+6	; 0x06
    1008:	00 97       	sbiw	r24, 0x00	; 0
    100a:	69 f7       	brne	.-38     	; 0xfe6 <CLCD_voidInit+0xce>
    100c:	14 c0       	rjmp	.+40     	; 0x1036 <CLCD_voidInit+0x11e>
			__ticks --;
		}
		return;
	}
	else
		__ticks = (uint16_t)__tmp;
    100e:	6f 81       	ldd	r22, Y+7	; 0x07
    1010:	78 85       	ldd	r23, Y+8	; 0x08
    1012:	89 85       	ldd	r24, Y+9	; 0x09
    1014:	9a 85       	ldd	r25, Y+10	; 0x0a
    1016:	0e 94 49 00 	call	0x92	; 0x92 <__fixunssfsi>
    101a:	dc 01       	movw	r26, r24
    101c:	cb 01       	movw	r24, r22
    101e:	9e 83       	std	Y+6, r25	; 0x06
    1020:	8d 83       	std	Y+5, r24	; 0x05
    1022:	8d 81       	ldd	r24, Y+5	; 0x05
    1024:	9e 81       	ldd	r25, Y+6	; 0x06
    1026:	9a 83       	std	Y+2, r25	; 0x02
    1028:	89 83       	std	Y+1, r24	; 0x01
    102a:	89 81       	ldd	r24, Y+1	; 0x01
    102c:	9a 81       	ldd	r25, Y+2	; 0x02
    102e:	01 97       	sbiw	r24, 0x01	; 1
    1030:	f1 f7       	brne	.-4      	; 0x102e <CLCD_voidInit+0x116>
    1032:	9a 83       	std	Y+2, r25	; 0x02
    1034:	89 83       	std	Y+1, r24	; 0x01

    //Wait for more than 30 ms
    _delay_ms(40);
    //Set Function
    CLCD_voidSendCommand(0b00111000);
    1036:	88 e3       	ldi	r24, 0x38	; 56
    1038:	0e 94 ee 06 	call	0xddc	; 0xddc <CLCD_voidSendCommand>
    //Display ON/OFF
    CLCD_voidSendCommand(0b00001111);
    103c:	8f e0       	ldi	r24, 0x0F	; 15
    103e:	0e 94 ee 06 	call	0xddc	; 0xddc <CLCD_voidSendCommand>
    //Display Clear
    CLCD_voidSendCommand(0b00000001);
    1042:	81 e0       	ldi	r24, 0x01	; 1
    1044:	0e 94 ee 06 	call	0xddc	; 0xddc <CLCD_voidSendCommand>
}
    1048:	2e 96       	adiw	r28, 0x0e	; 14
    104a:	0f b6       	in	r0, 0x3f	; 63
    104c:	f8 94       	cli
    104e:	de bf       	out	0x3e, r29	; 62
    1050:	0f be       	out	0x3f, r0	; 63
    1052:	cd bf       	out	0x3d, r28	; 61
    1054:	cf 91       	pop	r28
    1056:	df 91       	pop	r29
    1058:	08 95       	ret

0000105a <CLCD_voidSendString>:

void CLCD_voidSendString(const char *Copy_pString)
{
    105a:	df 93       	push	r29
    105c:	cf 93       	push	r28
    105e:	00 d0       	rcall	.+0      	; 0x1060 <CLCD_voidSendString+0x6>
    1060:	0f 92       	push	r0
    1062:	cd b7       	in	r28, 0x3d	; 61
    1064:	de b7       	in	r29, 0x3e	; 62
    1066:	9b 83       	std	Y+3, r25	; 0x03
    1068:	8a 83       	std	Y+2, r24	; 0x02
	u8 Local_u8Counter=0;
    106a:	19 82       	std	Y+1, r1	; 0x01
    106c:	0e c0       	rjmp	.+28     	; 0x108a <CLCD_voidSendString+0x30>
	while(Copy_pString[Local_u8Counter] != '\0')
	{
		CLCD_voidSendData(Copy_pString[Local_u8Counter]);
    106e:	89 81       	ldd	r24, Y+1	; 0x01
    1070:	28 2f       	mov	r18, r24
    1072:	30 e0       	ldi	r19, 0x00	; 0
    1074:	8a 81       	ldd	r24, Y+2	; 0x02
    1076:	9b 81       	ldd	r25, Y+3	; 0x03
    1078:	fc 01       	movw	r30, r24
    107a:	e2 0f       	add	r30, r18
    107c:	f3 1f       	adc	r31, r19
    107e:	80 81       	ld	r24, Z
    1080:	0e 94 50 06 	call	0xca0	; 0xca0 <CLCD_voidSendData>
		Local_u8Counter++;
    1084:	89 81       	ldd	r24, Y+1	; 0x01
    1086:	8f 5f       	subi	r24, 0xFF	; 255
    1088:	89 83       	std	Y+1, r24	; 0x01
}

void CLCD_voidSendString(const char *Copy_pString)
{
	u8 Local_u8Counter=0;
	while(Copy_pString[Local_u8Counter] != '\0')
    108a:	89 81       	ldd	r24, Y+1	; 0x01
    108c:	28 2f       	mov	r18, r24
    108e:	30 e0       	ldi	r19, 0x00	; 0
    1090:	8a 81       	ldd	r24, Y+2	; 0x02
    1092:	9b 81       	ldd	r25, Y+3	; 0x03
    1094:	fc 01       	movw	r30, r24
    1096:	e2 0f       	add	r30, r18
    1098:	f3 1f       	adc	r31, r19
    109a:	80 81       	ld	r24, Z
    109c:	88 23       	and	r24, r24
    109e:	39 f7       	brne	.-50     	; 0x106e <CLCD_voidSendString+0x14>
	{
		CLCD_voidSendData(Copy_pString[Local_u8Counter]);
		Local_u8Counter++;
	}
}
    10a0:	0f 90       	pop	r0
    10a2:	0f 90       	pop	r0
    10a4:	0f 90       	pop	r0
    10a6:	cf 91       	pop	r28
    10a8:	df 91       	pop	r29
    10aa:	08 95       	ret

000010ac <CLCD_voidSendInteger>:


void CLCD_voidSendInteger(u32 Copy_u32Integer)
{
    10ac:	0f 93       	push	r16
    10ae:	1f 93       	push	r17
    10b0:	df 93       	push	r29
    10b2:	cf 93       	push	r28
    10b4:	cd b7       	in	r28, 0x3d	; 61
    10b6:	de b7       	in	r29, 0x3e	; 62
    10b8:	60 97       	sbiw	r28, 0x10	; 16
    10ba:	0f b6       	in	r0, 0x3f	; 63
    10bc:	f8 94       	cli
    10be:	de bf       	out	0x3e, r29	; 62
    10c0:	0f be       	out	0x3f, r0	; 63
    10c2:	cd bf       	out	0x3d, r28	; 61
    10c4:	6d 87       	std	Y+13, r22	; 0x0d
    10c6:	7e 87       	std	Y+14, r23	; 0x0e
    10c8:	8f 87       	std	Y+15, r24	; 0x0f
    10ca:	98 8b       	std	Y+16, r25	; 0x10
	u8 Local_u8Number[10];
	u8 i=0;
    10cc:	1a 82       	std	Y+2, r1	; 0x02
    10ce:	2e c0       	rjmp	.+92     	; 0x112c <CLCD_voidSendInteger+0x80>
	while(Copy_u32Integer >= 10)
	{
		Local_u8Number[i] = Copy_u32Integer%10 + ZERO_ASCII;
    10d0:	8a 81       	ldd	r24, Y+2	; 0x02
    10d2:	08 2f       	mov	r16, r24
    10d4:	10 e0       	ldi	r17, 0x00	; 0
    10d6:	8d 85       	ldd	r24, Y+13	; 0x0d
    10d8:	9e 85       	ldd	r25, Y+14	; 0x0e
    10da:	af 85       	ldd	r26, Y+15	; 0x0f
    10dc:	b8 89       	ldd	r27, Y+16	; 0x10
    10de:	2a e0       	ldi	r18, 0x0A	; 10
    10e0:	30 e0       	ldi	r19, 0x00	; 0
    10e2:	40 e0       	ldi	r20, 0x00	; 0
    10e4:	50 e0       	ldi	r21, 0x00	; 0
    10e6:	bc 01       	movw	r22, r24
    10e8:	cd 01       	movw	r24, r26
    10ea:	0e 94 7a 13 	call	0x26f4	; 0x26f4 <__udivmodsi4>
    10ee:	dc 01       	movw	r26, r24
    10f0:	cb 01       	movw	r24, r22
    10f2:	28 2f       	mov	r18, r24
    10f4:	20 5d       	subi	r18, 0xD0	; 208
    10f6:	ce 01       	movw	r24, r28
    10f8:	03 96       	adiw	r24, 0x03	; 3
    10fa:	fc 01       	movw	r30, r24
    10fc:	e0 0f       	add	r30, r16
    10fe:	f1 1f       	adc	r31, r17
    1100:	20 83       	st	Z, r18
		Copy_u32Integer = Copy_u32Integer/10;
    1102:	8d 85       	ldd	r24, Y+13	; 0x0d
    1104:	9e 85       	ldd	r25, Y+14	; 0x0e
    1106:	af 85       	ldd	r26, Y+15	; 0x0f
    1108:	b8 89       	ldd	r27, Y+16	; 0x10
    110a:	2a e0       	ldi	r18, 0x0A	; 10
    110c:	30 e0       	ldi	r19, 0x00	; 0
    110e:	40 e0       	ldi	r20, 0x00	; 0
    1110:	50 e0       	ldi	r21, 0x00	; 0
    1112:	bc 01       	movw	r22, r24
    1114:	cd 01       	movw	r24, r26
    1116:	0e 94 7a 13 	call	0x26f4	; 0x26f4 <__udivmodsi4>
    111a:	da 01       	movw	r26, r20
    111c:	c9 01       	movw	r24, r18
    111e:	8d 87       	std	Y+13, r24	; 0x0d
    1120:	9e 87       	std	Y+14, r25	; 0x0e
    1122:	af 87       	std	Y+15, r26	; 0x0f
    1124:	b8 8b       	std	Y+16, r27	; 0x10
		i++;
    1126:	8a 81       	ldd	r24, Y+2	; 0x02
    1128:	8f 5f       	subi	r24, 0xFF	; 255
    112a:	8a 83       	std	Y+2, r24	; 0x02

void CLCD_voidSendInteger(u32 Copy_u32Integer)
{
	u8 Local_u8Number[10];
	u8 i=0;
	while(Copy_u32Integer >= 10)
    112c:	8d 85       	ldd	r24, Y+13	; 0x0d
    112e:	9e 85       	ldd	r25, Y+14	; 0x0e
    1130:	af 85       	ldd	r26, Y+15	; 0x0f
    1132:	b8 89       	ldd	r27, Y+16	; 0x10
    1134:	8a 30       	cpi	r24, 0x0A	; 10
    1136:	91 05       	cpc	r25, r1
    1138:	a1 05       	cpc	r26, r1
    113a:	b1 05       	cpc	r27, r1
    113c:	48 f6       	brcc	.-110    	; 0x10d0 <CLCD_voidSendInteger+0x24>
	{
		Local_u8Number[i] = Copy_u32Integer%10 + ZERO_ASCII;
		Copy_u32Integer = Copy_u32Integer/10;
		i++;
	}
	Local_u8Number[i] = Copy_u32Integer + ZERO_ASCII;
    113e:	8a 81       	ldd	r24, Y+2	; 0x02
    1140:	28 2f       	mov	r18, r24
    1142:	30 e0       	ldi	r19, 0x00	; 0
    1144:	8d 85       	ldd	r24, Y+13	; 0x0d
    1146:	48 2f       	mov	r20, r24
    1148:	40 5d       	subi	r20, 0xD0	; 208
    114a:	ce 01       	movw	r24, r28
    114c:	03 96       	adiw	r24, 0x03	; 3
    114e:	fc 01       	movw	r30, r24
    1150:	e2 0f       	add	r30, r18
    1152:	f3 1f       	adc	r31, r19
    1154:	40 83       	st	Z, r20

	for(s8 j=i ; j>=0 ; j--)
    1156:	8a 81       	ldd	r24, Y+2	; 0x02
    1158:	89 83       	std	Y+1, r24	; 0x01
    115a:	10 c0       	rjmp	.+32     	; 0x117c <CLCD_voidSendInteger+0xd0>
	{
		CLCD_voidSendData(Local_u8Number[j]);
    115c:	89 81       	ldd	r24, Y+1	; 0x01
    115e:	28 2f       	mov	r18, r24
    1160:	33 27       	eor	r19, r19
    1162:	27 fd       	sbrc	r18, 7
    1164:	30 95       	com	r19
    1166:	ce 01       	movw	r24, r28
    1168:	03 96       	adiw	r24, 0x03	; 3
    116a:	fc 01       	movw	r30, r24
    116c:	e2 0f       	add	r30, r18
    116e:	f3 1f       	adc	r31, r19
    1170:	80 81       	ld	r24, Z
    1172:	0e 94 50 06 	call	0xca0	; 0xca0 <CLCD_voidSendData>
		Copy_u32Integer = Copy_u32Integer/10;
		i++;
	}
	Local_u8Number[i] = Copy_u32Integer + ZERO_ASCII;

	for(s8 j=i ; j>=0 ; j--)
    1176:	89 81       	ldd	r24, Y+1	; 0x01
    1178:	81 50       	subi	r24, 0x01	; 1
    117a:	89 83       	std	Y+1, r24	; 0x01
    117c:	89 81       	ldd	r24, Y+1	; 0x01
    117e:	88 23       	and	r24, r24
    1180:	6c f7       	brge	.-38     	; 0x115c <CLCD_voidSendInteger+0xb0>
	{
		CLCD_voidSendData(Local_u8Number[j]);
	}
}
    1182:	60 96       	adiw	r28, 0x10	; 16
    1184:	0f b6       	in	r0, 0x3f	; 63
    1186:	f8 94       	cli
    1188:	de bf       	out	0x3e, r29	; 62
    118a:	0f be       	out	0x3f, r0	; 63
    118c:	cd bf       	out	0x3d, r28	; 61
    118e:	cf 91       	pop	r28
    1190:	df 91       	pop	r29
    1192:	1f 91       	pop	r17
    1194:	0f 91       	pop	r16
    1196:	08 95       	ret

00001198 <CLCD_voidSetXYPosition>:



void CLCD_voidSetXYPosition(u8 Copy_u8XPositin , u8 Copy_u8YPositin)
{
    1198:	df 93       	push	r29
    119a:	cf 93       	push	r28
    119c:	00 d0       	rcall	.+0      	; 0x119e <CLCD_voidSetXYPosition+0x6>
    119e:	0f 92       	push	r0
    11a0:	cd b7       	in	r28, 0x3d	; 61
    11a2:	de b7       	in	r29, 0x3e	; 62
    11a4:	8a 83       	std	Y+2, r24	; 0x02
    11a6:	6b 83       	std	Y+3, r22	; 0x03
	u8 Local_u8Address;

	if(Copy_u8YPositin == 0)
    11a8:	8b 81       	ldd	r24, Y+3	; 0x03
    11aa:	88 23       	and	r24, r24
    11ac:	19 f4       	brne	.+6      	; 0x11b4 <CLCD_voidSetXYPosition+0x1c>
	{
		Local_u8Address = Copy_u8XPositin;
    11ae:	8a 81       	ldd	r24, Y+2	; 0x02
    11b0:	89 83       	std	Y+1, r24	; 0x01
    11b2:	06 c0       	rjmp	.+12     	; 0x11c0 <CLCD_voidSetXYPosition+0x28>
	}
	else if(Copy_u8YPositin == 1)
    11b4:	8b 81       	ldd	r24, Y+3	; 0x03
    11b6:	81 30       	cpi	r24, 0x01	; 1
    11b8:	19 f4       	brne	.+6      	; 0x11c0 <CLCD_voidSetXYPosition+0x28>
	{
		Local_u8Address = Copy_u8XPositin + 0x40;
    11ba:	8a 81       	ldd	r24, Y+2	; 0x02
    11bc:	80 5c       	subi	r24, 0xC0	; 192
    11be:	89 83       	std	Y+1, r24	; 0x01
	}
	SET_BIT(Local_u8Address , 7);
    11c0:	89 81       	ldd	r24, Y+1	; 0x01
    11c2:	80 68       	ori	r24, 0x80	; 128
    11c4:	89 83       	std	Y+1, r24	; 0x01

	CLCD_voidSendCommand(Local_u8Address);
    11c6:	89 81       	ldd	r24, Y+1	; 0x01
    11c8:	0e 94 ee 06 	call	0xddc	; 0xddc <CLCD_voidSendCommand>
}
    11cc:	0f 90       	pop	r0
    11ce:	0f 90       	pop	r0
    11d0:	0f 90       	pop	r0
    11d2:	cf 91       	pop	r28
    11d4:	df 91       	pop	r29
    11d6:	08 95       	ret

000011d8 <CLCD_voidScrollTextLeftToRight>:



void CLCD_voidScrollTextLeftToRight(char *Copy_u8Text)
{
    11d8:	df 93       	push	r29
    11da:	cf 93       	push	r28
    11dc:	cd b7       	in	r28, 0x3d	; 61
    11de:	de b7       	in	r29, 0x3e	; 62
    11e0:	63 97       	sbiw	r28, 0x13	; 19
    11e2:	0f b6       	in	r0, 0x3f	; 63
    11e4:	f8 94       	cli
    11e6:	de bf       	out	0x3e, r29	; 62
    11e8:	0f be       	out	0x3f, r0	; 63
    11ea:	cd bf       	out	0x3d, r28	; 61
    11ec:	9b 8b       	std	Y+19, r25	; 0x13
    11ee:	8a 8b       	std	Y+18, r24	; 0x12
	u8 STR_u8Lenght=0;
    11f0:	19 8a       	std	Y+17, r1	; 0x11
    11f2:	03 c0       	rjmp	.+6      	; 0x11fa <CLCD_voidScrollTextLeftToRight+0x22>
	while(Copy_u8Text[STR_u8Lenght] != '\0')
	{
		STR_u8Lenght++;
    11f4:	89 89       	ldd	r24, Y+17	; 0x11
    11f6:	8f 5f       	subi	r24, 0xFF	; 255
    11f8:	89 8b       	std	Y+17, r24	; 0x11


void CLCD_voidScrollTextLeftToRight(char *Copy_u8Text)
{
	u8 STR_u8Lenght=0;
	while(Copy_u8Text[STR_u8Lenght] != '\0')
    11fa:	89 89       	ldd	r24, Y+17	; 0x11
    11fc:	28 2f       	mov	r18, r24
    11fe:	30 e0       	ldi	r19, 0x00	; 0
    1200:	8a 89       	ldd	r24, Y+18	; 0x12
    1202:	9b 89       	ldd	r25, Y+19	; 0x13
    1204:	fc 01       	movw	r30, r24
    1206:	e2 0f       	add	r30, r18
    1208:	f3 1f       	adc	r31, r19
    120a:	80 81       	ld	r24, Z
    120c:	88 23       	and	r24, r24
    120e:	91 f7       	brne	.-28     	; 0x11f4 <CLCD_voidScrollTextLeftToRight+0x1c>
	{
		STR_u8Lenght++;
	}

	for(s8 position = -STR_u8Lenght ; position<=16 ; position++)
    1210:	89 89       	ldd	r24, Y+17	; 0x11
    1212:	81 95       	neg	r24
    1214:	88 8b       	std	Y+16, r24	; 0x10
    1216:	b2 c0       	rjmp	.+356    	; 0x137c <CLCD_voidScrollTextLeftToRight+0x1a4>
	{
		CLCD_voidSendCommand(0x01);    //Clear Display
    1218:	81 e0       	ldi	r24, 0x01	; 1
    121a:	0e 94 ee 06 	call	0xddc	; 0xddc <CLCD_voidSendCommand>
		if(position >= 0) CLCD_voidSetXYPosition(position , 0);
    121e:	88 89       	ldd	r24, Y+16	; 0x10
    1220:	88 23       	and	r24, r24
    1222:	2c f0       	brlt	.+10     	; 0x122e <CLCD_voidScrollTextLeftToRight+0x56>
    1224:	88 89       	ldd	r24, Y+16	; 0x10
    1226:	60 e0       	ldi	r22, 0x00	; 0
    1228:	0e 94 cc 08 	call	0x1198	; 0x1198 <CLCD_voidSetXYPosition>
    122c:	07 c0       	rjmp	.+14     	; 0x123c <CLCD_voidScrollTextLeftToRight+0x64>
		else if(position < 0) CLCD_voidSetXYPosition(0 , 0);
    122e:	88 89       	ldd	r24, Y+16	; 0x10
    1230:	88 23       	and	r24, r24
    1232:	24 f4       	brge	.+8      	; 0x123c <CLCD_voidScrollTextLeftToRight+0x64>
    1234:	80 e0       	ldi	r24, 0x00	; 0
    1236:	60 e0       	ldi	r22, 0x00	; 0
    1238:	0e 94 cc 08 	call	0x1198	; 0x1198 <CLCD_voidSetXYPosition>

		for(u8 i=0 ; i<STR_u8Lenght ; i++)
    123c:	1f 86       	std	Y+15, r1	; 0x0f
    123e:	25 c0       	rjmp	.+74     	; 0x128a <CLCD_voidScrollTextLeftToRight+0xb2>
		{
			if(i + position >= 0 && i + position < 16 )
    1240:	8f 85       	ldd	r24, Y+15	; 0x0f
    1242:	28 2f       	mov	r18, r24
    1244:	30 e0       	ldi	r19, 0x00	; 0
    1246:	88 89       	ldd	r24, Y+16	; 0x10
    1248:	99 27       	eor	r25, r25
    124a:	87 fd       	sbrc	r24, 7
    124c:	90 95       	com	r25
    124e:	82 0f       	add	r24, r18
    1250:	93 1f       	adc	r25, r19
    1252:	99 23       	and	r25, r25
    1254:	bc f0       	brlt	.+46     	; 0x1284 <CLCD_voidScrollTextLeftToRight+0xac>
    1256:	8f 85       	ldd	r24, Y+15	; 0x0f
    1258:	28 2f       	mov	r18, r24
    125a:	30 e0       	ldi	r19, 0x00	; 0
    125c:	88 89       	ldd	r24, Y+16	; 0x10
    125e:	99 27       	eor	r25, r25
    1260:	87 fd       	sbrc	r24, 7
    1262:	90 95       	com	r25
    1264:	82 0f       	add	r24, r18
    1266:	93 1f       	adc	r25, r19
    1268:	80 31       	cpi	r24, 0x10	; 16
    126a:	91 05       	cpc	r25, r1
    126c:	5c f4       	brge	.+22     	; 0x1284 <CLCD_voidScrollTextLeftToRight+0xac>
			{
				CLCD_voidSendData(Copy_u8Text[i]);
    126e:	8f 85       	ldd	r24, Y+15	; 0x0f
    1270:	28 2f       	mov	r18, r24
    1272:	30 e0       	ldi	r19, 0x00	; 0
    1274:	8a 89       	ldd	r24, Y+18	; 0x12
    1276:	9b 89       	ldd	r25, Y+19	; 0x13
    1278:	fc 01       	movw	r30, r24
    127a:	e2 0f       	add	r30, r18
    127c:	f3 1f       	adc	r31, r19
    127e:	80 81       	ld	r24, Z
    1280:	0e 94 50 06 	call	0xca0	; 0xca0 <CLCD_voidSendData>
	{
		CLCD_voidSendCommand(0x01);    //Clear Display
		if(position >= 0) CLCD_voidSetXYPosition(position , 0);
		else if(position < 0) CLCD_voidSetXYPosition(0 , 0);

		for(u8 i=0 ; i<STR_u8Lenght ; i++)
    1284:	8f 85       	ldd	r24, Y+15	; 0x0f
    1286:	8f 5f       	subi	r24, 0xFF	; 255
    1288:	8f 87       	std	Y+15, r24	; 0x0f
    128a:	9f 85       	ldd	r25, Y+15	; 0x0f
    128c:	89 89       	ldd	r24, Y+17	; 0x11
    128e:	98 17       	cp	r25, r24
    1290:	b8 f2       	brcs	.-82     	; 0x1240 <CLCD_voidScrollTextLeftToRight+0x68>
    1292:	80 e0       	ldi	r24, 0x00	; 0
    1294:	90 e0       	ldi	r25, 0x00	; 0
    1296:	a6 e9       	ldi	r26, 0x96	; 150
    1298:	b3 e4       	ldi	r27, 0x43	; 67
    129a:	8b 87       	std	Y+11, r24	; 0x0b
    129c:	9c 87       	std	Y+12, r25	; 0x0c
    129e:	ad 87       	std	Y+13, r26	; 0x0d
    12a0:	be 87       	std	Y+14, r27	; 0x0e
 */
void
_delay_ms(double __ms)
{
	uint16_t __ticks;
	double __tmp = ((F_CPU) / 4e3) * __ms;
    12a2:	6b 85       	ldd	r22, Y+11	; 0x0b
    12a4:	7c 85       	ldd	r23, Y+12	; 0x0c
    12a6:	8d 85       	ldd	r24, Y+13	; 0x0d
    12a8:	9e 85       	ldd	r25, Y+14	; 0x0e
    12aa:	20 e0       	ldi	r18, 0x00	; 0
    12ac:	30 e0       	ldi	r19, 0x00	; 0
    12ae:	4a ef       	ldi	r20, 0xFA	; 250
    12b0:	54 e4       	ldi	r21, 0x44	; 68
    12b2:	0e 94 1f 02 	call	0x43e	; 0x43e <__mulsf3>
    12b6:	dc 01       	movw	r26, r24
    12b8:	cb 01       	movw	r24, r22
    12ba:	8f 83       	std	Y+7, r24	; 0x07
    12bc:	98 87       	std	Y+8, r25	; 0x08
    12be:	a9 87       	std	Y+9, r26	; 0x09
    12c0:	ba 87       	std	Y+10, r27	; 0x0a
	if (__tmp < 1.0)
    12c2:	6f 81       	ldd	r22, Y+7	; 0x07
    12c4:	78 85       	ldd	r23, Y+8	; 0x08
    12c6:	89 85       	ldd	r24, Y+9	; 0x09
    12c8:	9a 85       	ldd	r25, Y+10	; 0x0a
    12ca:	20 e0       	ldi	r18, 0x00	; 0
    12cc:	30 e0       	ldi	r19, 0x00	; 0
    12ce:	40 e8       	ldi	r20, 0x80	; 128
    12d0:	5f e3       	ldi	r21, 0x3F	; 63
    12d2:	0e 94 79 03 	call	0x6f2	; 0x6f2 <__ltsf2>
    12d6:	88 23       	and	r24, r24
    12d8:	2c f4       	brge	.+10     	; 0x12e4 <CLCD_voidScrollTextLeftToRight+0x10c>
		__ticks = 1;
    12da:	81 e0       	ldi	r24, 0x01	; 1
    12dc:	90 e0       	ldi	r25, 0x00	; 0
    12de:	9e 83       	std	Y+6, r25	; 0x06
    12e0:	8d 83       	std	Y+5, r24	; 0x05
    12e2:	3f c0       	rjmp	.+126    	; 0x1362 <CLCD_voidScrollTextLeftToRight+0x18a>
	else if (__tmp > 65535)
    12e4:	6f 81       	ldd	r22, Y+7	; 0x07
    12e6:	78 85       	ldd	r23, Y+8	; 0x08
    12e8:	89 85       	ldd	r24, Y+9	; 0x09
    12ea:	9a 85       	ldd	r25, Y+10	; 0x0a
    12ec:	20 e0       	ldi	r18, 0x00	; 0
    12ee:	3f ef       	ldi	r19, 0xFF	; 255
    12f0:	4f e7       	ldi	r20, 0x7F	; 127
    12f2:	57 e4       	ldi	r21, 0x47	; 71
    12f4:	0e 94 19 03 	call	0x632	; 0x632 <__gtsf2>
    12f8:	18 16       	cp	r1, r24
    12fa:	4c f5       	brge	.+82     	; 0x134e <CLCD_voidScrollTextLeftToRight+0x176>
	{
		//	__ticks = requested delay in 1/10 ms
		__ticks = (uint16_t) (__ms * 10.0);
    12fc:	6b 85       	ldd	r22, Y+11	; 0x0b
    12fe:	7c 85       	ldd	r23, Y+12	; 0x0c
    1300:	8d 85       	ldd	r24, Y+13	; 0x0d
    1302:	9e 85       	ldd	r25, Y+14	; 0x0e
    1304:	20 e0       	ldi	r18, 0x00	; 0
    1306:	30 e0       	ldi	r19, 0x00	; 0
    1308:	40 e2       	ldi	r20, 0x20	; 32
    130a:	51 e4       	ldi	r21, 0x41	; 65
    130c:	0e 94 1f 02 	call	0x43e	; 0x43e <__mulsf3>
    1310:	dc 01       	movw	r26, r24
    1312:	cb 01       	movw	r24, r22
    1314:	bc 01       	movw	r22, r24
    1316:	cd 01       	movw	r24, r26
    1318:	0e 94 49 00 	call	0x92	; 0x92 <__fixunssfsi>
    131c:	dc 01       	movw	r26, r24
    131e:	cb 01       	movw	r24, r22
    1320:	9e 83       	std	Y+6, r25	; 0x06
    1322:	8d 83       	std	Y+5, r24	; 0x05
    1324:	0f c0       	rjmp	.+30     	; 0x1344 <CLCD_voidScrollTextLeftToRight+0x16c>
    1326:	88 ec       	ldi	r24, 0xC8	; 200
    1328:	90 e0       	ldi	r25, 0x00	; 0
    132a:	9c 83       	std	Y+4, r25	; 0x04
    132c:	8b 83       	std	Y+3, r24	; 0x03
    132e:	8b 81       	ldd	r24, Y+3	; 0x03
    1330:	9c 81       	ldd	r25, Y+4	; 0x04
    1332:	01 97       	sbiw	r24, 0x01	; 1
    1334:	f1 f7       	brne	.-4      	; 0x1332 <CLCD_voidScrollTextLeftToRight+0x15a>
    1336:	9c 83       	std	Y+4, r25	; 0x04
    1338:	8b 83       	std	Y+3, r24	; 0x03
		while(__ticks)
		{
			// wait 1/10 ms
			_delay_loop_2(((F_CPU) / 4e3) / 10);
			__ticks --;
    133a:	8d 81       	ldd	r24, Y+5	; 0x05
    133c:	9e 81       	ldd	r25, Y+6	; 0x06
    133e:	01 97       	sbiw	r24, 0x01	; 1
    1340:	9e 83       	std	Y+6, r25	; 0x06
    1342:	8d 83       	std	Y+5, r24	; 0x05
		__ticks = 1;
	else if (__tmp > 65535)
	{
		//	__ticks = requested delay in 1/10 ms
		__ticks = (uint16_t) (__ms * 10.0);
		while(__ticks)
    1344:	8d 81       	ldd	r24, Y+5	; 0x05
    1346:	9e 81       	ldd	r25, Y+6	; 0x06
    1348:	00 97       	sbiw	r24, 0x00	; 0
    134a:	69 f7       	brne	.-38     	; 0x1326 <CLCD_voidScrollTextLeftToRight+0x14e>
    134c:	14 c0       	rjmp	.+40     	; 0x1376 <CLCD_voidScrollTextLeftToRight+0x19e>
			__ticks --;
		}
		return;
	}
	else
		__ticks = (uint16_t)__tmp;
    134e:	6f 81       	ldd	r22, Y+7	; 0x07
    1350:	78 85       	ldd	r23, Y+8	; 0x08
    1352:	89 85       	ldd	r24, Y+9	; 0x09
    1354:	9a 85       	ldd	r25, Y+10	; 0x0a
    1356:	0e 94 49 00 	call	0x92	; 0x92 <__fixunssfsi>
    135a:	dc 01       	movw	r26, r24
    135c:	cb 01       	movw	r24, r22
    135e:	9e 83       	std	Y+6, r25	; 0x06
    1360:	8d 83       	std	Y+5, r24	; 0x05
    1362:	8d 81       	ldd	r24, Y+5	; 0x05
    1364:	9e 81       	ldd	r25, Y+6	; 0x06
    1366:	9a 83       	std	Y+2, r25	; 0x02
    1368:	89 83       	std	Y+1, r24	; 0x01
    136a:	89 81       	ldd	r24, Y+1	; 0x01
    136c:	9a 81       	ldd	r25, Y+2	; 0x02
    136e:	01 97       	sbiw	r24, 0x01	; 1
    1370:	f1 f7       	brne	.-4      	; 0x136e <CLCD_voidScrollTextLeftToRight+0x196>
    1372:	9a 83       	std	Y+2, r25	; 0x02
    1374:	89 83       	std	Y+1, r24	; 0x01
	while(Copy_u8Text[STR_u8Lenght] != '\0')
	{
		STR_u8Lenght++;
	}

	for(s8 position = -STR_u8Lenght ; position<=16 ; position++)
    1376:	88 89       	ldd	r24, Y+16	; 0x10
    1378:	8f 5f       	subi	r24, 0xFF	; 255
    137a:	88 8b       	std	Y+16, r24	; 0x10
    137c:	88 89       	ldd	r24, Y+16	; 0x10
    137e:	81 31       	cpi	r24, 0x11	; 17
    1380:	0c f4       	brge	.+2      	; 0x1384 <CLCD_voidScrollTextLeftToRight+0x1ac>
    1382:	4a cf       	rjmp	.-364    	; 0x1218 <CLCD_voidScrollTextLeftToRight+0x40>
				CLCD_voidSendData(Copy_u8Text[i]);
			}
		}
		_delay_ms(300);
	}
}
    1384:	63 96       	adiw	r28, 0x13	; 19
    1386:	0f b6       	in	r0, 0x3f	; 63
    1388:	f8 94       	cli
    138a:	de bf       	out	0x3e, r29	; 62
    138c:	0f be       	out	0x3f, r0	; 63
    138e:	cd bf       	out	0x3d, r28	; 61
    1390:	cf 91       	pop	r28
    1392:	df 91       	pop	r29
    1394:	08 95       	ret

00001396 <CLCD_voidScrollTextRightToLeft>:


void CLCD_voidScrollTextRightToLeft(char *Copy_u8Text)
{
    1396:	df 93       	push	r29
    1398:	cf 93       	push	r28
    139a:	cd b7       	in	r28, 0x3d	; 61
    139c:	de b7       	in	r29, 0x3e	; 62
    139e:	63 97       	sbiw	r28, 0x13	; 19
    13a0:	0f b6       	in	r0, 0x3f	; 63
    13a2:	f8 94       	cli
    13a4:	de bf       	out	0x3e, r29	; 62
    13a6:	0f be       	out	0x3f, r0	; 63
    13a8:	cd bf       	out	0x3d, r28	; 61
    13aa:	9b 8b       	std	Y+19, r25	; 0x13
    13ac:	8a 8b       	std	Y+18, r24	; 0x12
    u8 STR_u8Length = 0;
    13ae:	19 8a       	std	Y+17, r1	; 0x11
    13b0:	03 c0       	rjmp	.+6      	; 0x13b8 <CLCD_voidScrollTextRightToLeft+0x22>

    while(Copy_u8Text[STR_u8Length] != '\0')
    {
        STR_u8Length++;
    13b2:	89 89       	ldd	r24, Y+17	; 0x11
    13b4:	8f 5f       	subi	r24, 0xFF	; 255
    13b6:	89 8b       	std	Y+17, r24	; 0x11

void CLCD_voidScrollTextRightToLeft(char *Copy_u8Text)
{
    u8 STR_u8Length = 0;

    while(Copy_u8Text[STR_u8Length] != '\0')
    13b8:	89 89       	ldd	r24, Y+17	; 0x11
    13ba:	28 2f       	mov	r18, r24
    13bc:	30 e0       	ldi	r19, 0x00	; 0
    13be:	8a 89       	ldd	r24, Y+18	; 0x12
    13c0:	9b 89       	ldd	r25, Y+19	; 0x13
    13c2:	fc 01       	movw	r30, r24
    13c4:	e2 0f       	add	r30, r18
    13c6:	f3 1f       	adc	r31, r19
    13c8:	80 81       	ld	r24, Z
    13ca:	88 23       	and	r24, r24
    13cc:	91 f7       	brne	.-28     	; 0x13b2 <CLCD_voidScrollTextRightToLeft+0x1c>
    {
        STR_u8Length++;
    }

    for(s8 position = 16; position >= -STR_u8Length; position--)
    13ce:	80 e1       	ldi	r24, 0x10	; 16
    13d0:	88 8b       	std	Y+16, r24	; 0x10
    13d2:	af c0       	rjmp	.+350    	; 0x1532 <CLCD_voidScrollTextRightToLeft+0x19c>
    {
        CLCD_voidSendCommand(0x01);  //Clear display
    13d4:	81 e0       	ldi	r24, 0x01	; 1
    13d6:	0e 94 ee 06 	call	0xddc	; 0xddc <CLCD_voidSendCommand>

        if(position >= 0)
    13da:	88 89       	ldd	r24, Y+16	; 0x10
    13dc:	88 23       	and	r24, r24
    13de:	2c f0       	brlt	.+10     	; 0x13ea <CLCD_voidScrollTextRightToLeft+0x54>
        {
            CLCD_voidSetXYPosition(position, 0);
    13e0:	88 89       	ldd	r24, Y+16	; 0x10
    13e2:	60 e0       	ldi	r22, 0x00	; 0
    13e4:	0e 94 cc 08 	call	0x1198	; 0x1198 <CLCD_voidSetXYPosition>
    13e8:	04 c0       	rjmp	.+8      	; 0x13f2 <CLCD_voidScrollTextRightToLeft+0x5c>
        }
        else
        {
            CLCD_voidSetXYPosition(0, 0);
    13ea:	80 e0       	ldi	r24, 0x00	; 0
    13ec:	60 e0       	ldi	r22, 0x00	; 0
    13ee:	0e 94 cc 08 	call	0x1198	; 0x1198 <CLCD_voidSetXYPosition>
        }

        for (u8 i = 0; i < STR_u8Length; i++)
    13f2:	1f 86       	std	Y+15, r1	; 0x0f
    13f4:	25 c0       	rjmp	.+74     	; 0x1440 <CLCD_voidScrollTextRightToLeft+0xaa>
        {
            if (i + position >= 0 && i + position < 16)
    13f6:	8f 85       	ldd	r24, Y+15	; 0x0f
    13f8:	28 2f       	mov	r18, r24
    13fa:	30 e0       	ldi	r19, 0x00	; 0
    13fc:	88 89       	ldd	r24, Y+16	; 0x10
    13fe:	99 27       	eor	r25, r25
    1400:	87 fd       	sbrc	r24, 7
    1402:	90 95       	com	r25
    1404:	82 0f       	add	r24, r18
    1406:	93 1f       	adc	r25, r19
    1408:	99 23       	and	r25, r25
    140a:	bc f0       	brlt	.+46     	; 0x143a <CLCD_voidScrollTextRightToLeft+0xa4>
    140c:	8f 85       	ldd	r24, Y+15	; 0x0f
    140e:	28 2f       	mov	r18, r24
    1410:	30 e0       	ldi	r19, 0x00	; 0
    1412:	88 89       	ldd	r24, Y+16	; 0x10
    1414:	99 27       	eor	r25, r25
    1416:	87 fd       	sbrc	r24, 7
    1418:	90 95       	com	r25
    141a:	82 0f       	add	r24, r18
    141c:	93 1f       	adc	r25, r19
    141e:	80 31       	cpi	r24, 0x10	; 16
    1420:	91 05       	cpc	r25, r1
    1422:	5c f4       	brge	.+22     	; 0x143a <CLCD_voidScrollTextRightToLeft+0xa4>
            {
                CLCD_voidSendData(Copy_u8Text[i]);
    1424:	8f 85       	ldd	r24, Y+15	; 0x0f
    1426:	28 2f       	mov	r18, r24
    1428:	30 e0       	ldi	r19, 0x00	; 0
    142a:	8a 89       	ldd	r24, Y+18	; 0x12
    142c:	9b 89       	ldd	r25, Y+19	; 0x13
    142e:	fc 01       	movw	r30, r24
    1430:	e2 0f       	add	r30, r18
    1432:	f3 1f       	adc	r31, r19
    1434:	80 81       	ld	r24, Z
    1436:	0e 94 50 06 	call	0xca0	; 0xca0 <CLCD_voidSendData>
        else
        {
            CLCD_voidSetXYPosition(0, 0);
        }

        for (u8 i = 0; i < STR_u8Length; i++)
    143a:	8f 85       	ldd	r24, Y+15	; 0x0f
    143c:	8f 5f       	subi	r24, 0xFF	; 255
    143e:	8f 87       	std	Y+15, r24	; 0x0f
    1440:	9f 85       	ldd	r25, Y+15	; 0x0f
    1442:	89 89       	ldd	r24, Y+17	; 0x11
    1444:	98 17       	cp	r25, r24
    1446:	b8 f2       	brcs	.-82     	; 0x13f6 <CLCD_voidScrollTextRightToLeft+0x60>
    1448:	80 e0       	ldi	r24, 0x00	; 0
    144a:	90 e0       	ldi	r25, 0x00	; 0
    144c:	a6 e9       	ldi	r26, 0x96	; 150
    144e:	b3 e4       	ldi	r27, 0x43	; 67
    1450:	8b 87       	std	Y+11, r24	; 0x0b
    1452:	9c 87       	std	Y+12, r25	; 0x0c
    1454:	ad 87       	std	Y+13, r26	; 0x0d
    1456:	be 87       	std	Y+14, r27	; 0x0e
 */
void
_delay_ms(double __ms)
{
	uint16_t __ticks;
	double __tmp = ((F_CPU) / 4e3) * __ms;
    1458:	6b 85       	ldd	r22, Y+11	; 0x0b
    145a:	7c 85       	ldd	r23, Y+12	; 0x0c
    145c:	8d 85       	ldd	r24, Y+13	; 0x0d
    145e:	9e 85       	ldd	r25, Y+14	; 0x0e
    1460:	20 e0       	ldi	r18, 0x00	; 0
    1462:	30 e0       	ldi	r19, 0x00	; 0
    1464:	4a ef       	ldi	r20, 0xFA	; 250
    1466:	54 e4       	ldi	r21, 0x44	; 68
    1468:	0e 94 1f 02 	call	0x43e	; 0x43e <__mulsf3>
    146c:	dc 01       	movw	r26, r24
    146e:	cb 01       	movw	r24, r22
    1470:	8f 83       	std	Y+7, r24	; 0x07
    1472:	98 87       	std	Y+8, r25	; 0x08
    1474:	a9 87       	std	Y+9, r26	; 0x09
    1476:	ba 87       	std	Y+10, r27	; 0x0a
	if (__tmp < 1.0)
    1478:	6f 81       	ldd	r22, Y+7	; 0x07
    147a:	78 85       	ldd	r23, Y+8	; 0x08
    147c:	89 85       	ldd	r24, Y+9	; 0x09
    147e:	9a 85       	ldd	r25, Y+10	; 0x0a
    1480:	20 e0       	ldi	r18, 0x00	; 0
    1482:	30 e0       	ldi	r19, 0x00	; 0
    1484:	40 e8       	ldi	r20, 0x80	; 128
    1486:	5f e3       	ldi	r21, 0x3F	; 63
    1488:	0e 94 79 03 	call	0x6f2	; 0x6f2 <__ltsf2>
    148c:	88 23       	and	r24, r24
    148e:	2c f4       	brge	.+10     	; 0x149a <CLCD_voidScrollTextRightToLeft+0x104>
		__ticks = 1;
    1490:	81 e0       	ldi	r24, 0x01	; 1
    1492:	90 e0       	ldi	r25, 0x00	; 0
    1494:	9e 83       	std	Y+6, r25	; 0x06
    1496:	8d 83       	std	Y+5, r24	; 0x05
    1498:	3f c0       	rjmp	.+126    	; 0x1518 <CLCD_voidScrollTextRightToLeft+0x182>
	else if (__tmp > 65535)
    149a:	6f 81       	ldd	r22, Y+7	; 0x07
    149c:	78 85       	ldd	r23, Y+8	; 0x08
    149e:	89 85       	ldd	r24, Y+9	; 0x09
    14a0:	9a 85       	ldd	r25, Y+10	; 0x0a
    14a2:	20 e0       	ldi	r18, 0x00	; 0
    14a4:	3f ef       	ldi	r19, 0xFF	; 255
    14a6:	4f e7       	ldi	r20, 0x7F	; 127
    14a8:	57 e4       	ldi	r21, 0x47	; 71
    14aa:	0e 94 19 03 	call	0x632	; 0x632 <__gtsf2>
    14ae:	18 16       	cp	r1, r24
    14b0:	4c f5       	brge	.+82     	; 0x1504 <CLCD_voidScrollTextRightToLeft+0x16e>
	{
		//	__ticks = requested delay in 1/10 ms
		__ticks = (uint16_t) (__ms * 10.0);
    14b2:	6b 85       	ldd	r22, Y+11	; 0x0b
    14b4:	7c 85       	ldd	r23, Y+12	; 0x0c
    14b6:	8d 85       	ldd	r24, Y+13	; 0x0d
    14b8:	9e 85       	ldd	r25, Y+14	; 0x0e
    14ba:	20 e0       	ldi	r18, 0x00	; 0
    14bc:	30 e0       	ldi	r19, 0x00	; 0
    14be:	40 e2       	ldi	r20, 0x20	; 32
    14c0:	51 e4       	ldi	r21, 0x41	; 65
    14c2:	0e 94 1f 02 	call	0x43e	; 0x43e <__mulsf3>
    14c6:	dc 01       	movw	r26, r24
    14c8:	cb 01       	movw	r24, r22
    14ca:	bc 01       	movw	r22, r24
    14cc:	cd 01       	movw	r24, r26
    14ce:	0e 94 49 00 	call	0x92	; 0x92 <__fixunssfsi>
    14d2:	dc 01       	movw	r26, r24
    14d4:	cb 01       	movw	r24, r22
    14d6:	9e 83       	std	Y+6, r25	; 0x06
    14d8:	8d 83       	std	Y+5, r24	; 0x05
    14da:	0f c0       	rjmp	.+30     	; 0x14fa <CLCD_voidScrollTextRightToLeft+0x164>
    14dc:	88 ec       	ldi	r24, 0xC8	; 200
    14de:	90 e0       	ldi	r25, 0x00	; 0
    14e0:	9c 83       	std	Y+4, r25	; 0x04
    14e2:	8b 83       	std	Y+3, r24	; 0x03
    14e4:	8b 81       	ldd	r24, Y+3	; 0x03
    14e6:	9c 81       	ldd	r25, Y+4	; 0x04
    14e8:	01 97       	sbiw	r24, 0x01	; 1
    14ea:	f1 f7       	brne	.-4      	; 0x14e8 <CLCD_voidScrollTextRightToLeft+0x152>
    14ec:	9c 83       	std	Y+4, r25	; 0x04
    14ee:	8b 83       	std	Y+3, r24	; 0x03
		while(__ticks)
		{
			// wait 1/10 ms
			_delay_loop_2(((F_CPU) / 4e3) / 10);
			__ticks --;
    14f0:	8d 81       	ldd	r24, Y+5	; 0x05
    14f2:	9e 81       	ldd	r25, Y+6	; 0x06
    14f4:	01 97       	sbiw	r24, 0x01	; 1
    14f6:	9e 83       	std	Y+6, r25	; 0x06
    14f8:	8d 83       	std	Y+5, r24	; 0x05
		__ticks = 1;
	else if (__tmp > 65535)
	{
		//	__ticks = requested delay in 1/10 ms
		__ticks = (uint16_t) (__ms * 10.0);
		while(__ticks)
    14fa:	8d 81       	ldd	r24, Y+5	; 0x05
    14fc:	9e 81       	ldd	r25, Y+6	; 0x06
    14fe:	00 97       	sbiw	r24, 0x00	; 0
    1500:	69 f7       	brne	.-38     	; 0x14dc <CLCD_voidScrollTextRightToLeft+0x146>
    1502:	14 c0       	rjmp	.+40     	; 0x152c <CLCD_voidScrollTextRightToLeft+0x196>
			__ticks --;
		}
		return;
	}
	else
		__ticks = (uint16_t)__tmp;
    1504:	6f 81       	ldd	r22, Y+7	; 0x07
    1506:	78 85       	ldd	r23, Y+8	; 0x08
    1508:	89 85       	ldd	r24, Y+9	; 0x09
    150a:	9a 85       	ldd	r25, Y+10	; 0x0a
    150c:	0e 94 49 00 	call	0x92	; 0x92 <__fixunssfsi>
    1510:	dc 01       	movw	r26, r24
    1512:	cb 01       	movw	r24, r22
    1514:	9e 83       	std	Y+6, r25	; 0x06
    1516:	8d 83       	std	Y+5, r24	; 0x05
    1518:	8d 81       	ldd	r24, Y+5	; 0x05
    151a:	9e 81       	ldd	r25, Y+6	; 0x06
    151c:	9a 83       	std	Y+2, r25	; 0x02
    151e:	89 83       	std	Y+1, r24	; 0x01
    1520:	89 81       	ldd	r24, Y+1	; 0x01
    1522:	9a 81       	ldd	r25, Y+2	; 0x02
    1524:	01 97       	sbiw	r24, 0x01	; 1
    1526:	f1 f7       	brne	.-4      	; 0x1524 <CLCD_voidScrollTextRightToLeft+0x18e>
    1528:	9a 83       	std	Y+2, r25	; 0x02
    152a:	89 83       	std	Y+1, r24	; 0x01
    while(Copy_u8Text[STR_u8Length] != '\0')
    {
        STR_u8Length++;
    }

    for(s8 position = 16; position >= -STR_u8Length; position--)
    152c:	88 89       	ldd	r24, Y+16	; 0x10
    152e:	81 50       	subi	r24, 0x01	; 1
    1530:	88 8b       	std	Y+16, r24	; 0x10
    1532:	88 89       	ldd	r24, Y+16	; 0x10
    1534:	28 2f       	mov	r18, r24
    1536:	33 27       	eor	r19, r19
    1538:	27 fd       	sbrc	r18, 7
    153a:	30 95       	com	r19
    153c:	89 89       	ldd	r24, Y+17	; 0x11
    153e:	88 2f       	mov	r24, r24
    1540:	90 e0       	ldi	r25, 0x00	; 0
    1542:	90 95       	com	r25
    1544:	81 95       	neg	r24
    1546:	9f 4f       	sbci	r25, 0xFF	; 255
    1548:	28 17       	cp	r18, r24
    154a:	39 07       	cpc	r19, r25
    154c:	0c f0       	brlt	.+2      	; 0x1550 <CLCD_voidScrollTextRightToLeft+0x1ba>
    154e:	42 cf       	rjmp	.-380    	; 0x13d4 <CLCD_voidScrollTextRightToLeft+0x3e>
            }
        }

        _delay_ms(300);
    }
}
    1550:	63 96       	adiw	r28, 0x13	; 19
    1552:	0f b6       	in	r0, 0x3f	; 63
    1554:	f8 94       	cli
    1556:	de bf       	out	0x3e, r29	; 62
    1558:	0f be       	out	0x3f, r0	; 63
    155a:	cd bf       	out	0x3d, r28	; 61
    155c:	cf 91       	pop	r28
    155e:	df 91       	pop	r29
    1560:	08 95       	ret

00001562 <CLCD_voidScrollTextSinsoidalwave>:


void CLCD_voidScrollTextSinsoidalwave(char *Copy_u8Text)
{
    1562:	df 93       	push	r29
    1564:	cf 93       	push	r28
    1566:	cd b7       	in	r28, 0x3d	; 61
    1568:	de b7       	in	r29, 0x3e	; 62
    156a:	65 97       	sbiw	r28, 0x15	; 21
    156c:	0f b6       	in	r0, 0x3f	; 63
    156e:	f8 94       	cli
    1570:	de bf       	out	0x3e, r29	; 62
    1572:	0f be       	out	0x3f, r0	; 63
    1574:	cd bf       	out	0x3d, r28	; 61
    1576:	9b 8b       	std	Y+19, r25	; 0x13
    1578:	8a 8b       	std	Y+18, r24	; 0x12
	u8 STR_u8Lenght=0;
    157a:	19 8a       	std	Y+17, r1	; 0x11
    157c:	03 c0       	rjmp	.+6      	; 0x1584 <CLCD_voidScrollTextSinsoidalwave+0x22>
	while(Copy_u8Text[STR_u8Lenght] != '\0')
	{
		STR_u8Lenght++;
    157e:	89 89       	ldd	r24, Y+17	; 0x11
    1580:	8f 5f       	subi	r24, 0xFF	; 255
    1582:	89 8b       	std	Y+17, r24	; 0x11


void CLCD_voidScrollTextSinsoidalwave(char *Copy_u8Text)
{
	u8 STR_u8Lenght=0;
	while(Copy_u8Text[STR_u8Lenght] != '\0')
    1584:	89 89       	ldd	r24, Y+17	; 0x11
    1586:	28 2f       	mov	r18, r24
    1588:	30 e0       	ldi	r19, 0x00	; 0
    158a:	8a 89       	ldd	r24, Y+18	; 0x12
    158c:	9b 89       	ldd	r25, Y+19	; 0x13
    158e:	fc 01       	movw	r30, r24
    1590:	e2 0f       	add	r30, r18
    1592:	f3 1f       	adc	r31, r19
    1594:	80 81       	ld	r24, Z
    1596:	88 23       	and	r24, r24
    1598:	91 f7       	brne	.-28     	; 0x157e <CLCD_voidScrollTextSinsoidalwave+0x1c>
	{
		STR_u8Lenght++;
	}

	for(s8 position = -STR_u8Lenght ; position<=16 ; position++)
    159a:	89 89       	ldd	r24, Y+17	; 0x11
    159c:	81 95       	neg	r24
    159e:	88 8b       	std	Y+16, r24	; 0x10
    15a0:	c6 c0       	rjmp	.+396    	; 0x172e <CLCD_voidScrollTextSinsoidalwave+0x1cc>
	{
		CLCD_voidSendCommand(0x01);    //Clear Display
    15a2:	81 e0       	ldi	r24, 0x01	; 1
    15a4:	0e 94 ee 06 	call	0xddc	; 0xddc <CLCD_voidSendCommand>
		if(position >= 0) CLCD_voidSetXYPosition(position , (position%2));
    15a8:	88 89       	ldd	r24, Y+16	; 0x10
    15aa:	88 23       	and	r24, r24
    15ac:	cc f0       	brlt	.+50     	; 0x15e0 <CLCD_voidScrollTextSinsoidalwave+0x7e>
    15ae:	88 89       	ldd	r24, Y+16	; 0x10
    15b0:	8c 8b       	std	Y+20, r24	; 0x14
    15b2:	88 89       	ldd	r24, Y+16	; 0x10
    15b4:	98 2f       	mov	r25, r24
    15b6:	91 78       	andi	r25, 0x81	; 129
    15b8:	9d 8b       	std	Y+21, r25	; 0x15
    15ba:	8d 89       	ldd	r24, Y+21	; 0x15
    15bc:	88 23       	and	r24, r24
    15be:	4c f4       	brge	.+18     	; 0x15d2 <CLCD_voidScrollTextSinsoidalwave+0x70>
    15c0:	9d 89       	ldd	r25, Y+21	; 0x15
    15c2:	91 50       	subi	r25, 0x01	; 1
    15c4:	9d 8b       	std	Y+21, r25	; 0x15
    15c6:	8d 89       	ldd	r24, Y+21	; 0x15
    15c8:	8e 6f       	ori	r24, 0xFE	; 254
    15ca:	8d 8b       	std	Y+21, r24	; 0x15
    15cc:	9d 89       	ldd	r25, Y+21	; 0x15
    15ce:	9f 5f       	subi	r25, 0xFF	; 255
    15d0:	9d 8b       	std	Y+21, r25	; 0x15
    15d2:	8d 89       	ldd	r24, Y+21	; 0x15
    15d4:	98 2f       	mov	r25, r24
    15d6:	8c 89       	ldd	r24, Y+20	; 0x14
    15d8:	69 2f       	mov	r22, r25
    15da:	0e 94 cc 08 	call	0x1198	; 0x1198 <CLCD_voidSetXYPosition>
    15de:	07 c0       	rjmp	.+14     	; 0x15ee <CLCD_voidScrollTextSinsoidalwave+0x8c>
		else if(position < 0) CLCD_voidSetXYPosition(0 , 0);
    15e0:	88 89       	ldd	r24, Y+16	; 0x10
    15e2:	88 23       	and	r24, r24
    15e4:	24 f4       	brge	.+8      	; 0x15ee <CLCD_voidScrollTextSinsoidalwave+0x8c>
    15e6:	80 e0       	ldi	r24, 0x00	; 0
    15e8:	60 e0       	ldi	r22, 0x00	; 0
    15ea:	0e 94 cc 08 	call	0x1198	; 0x1198 <CLCD_voidSetXYPosition>

		for(u8 i=0 ; i<STR_u8Lenght ; i++)
    15ee:	1f 86       	std	Y+15, r1	; 0x0f
    15f0:	25 c0       	rjmp	.+74     	; 0x163c <CLCD_voidScrollTextSinsoidalwave+0xda>
		{
			if(i + position >= 0 && i + position < 16 )
    15f2:	8f 85       	ldd	r24, Y+15	; 0x0f
    15f4:	28 2f       	mov	r18, r24
    15f6:	30 e0       	ldi	r19, 0x00	; 0
    15f8:	88 89       	ldd	r24, Y+16	; 0x10
    15fa:	99 27       	eor	r25, r25
    15fc:	87 fd       	sbrc	r24, 7
    15fe:	90 95       	com	r25
    1600:	82 0f       	add	r24, r18
    1602:	93 1f       	adc	r25, r19
    1604:	99 23       	and	r25, r25
    1606:	bc f0       	brlt	.+46     	; 0x1636 <CLCD_voidScrollTextSinsoidalwave+0xd4>
    1608:	8f 85       	ldd	r24, Y+15	; 0x0f
    160a:	28 2f       	mov	r18, r24
    160c:	30 e0       	ldi	r19, 0x00	; 0
    160e:	88 89       	ldd	r24, Y+16	; 0x10
    1610:	99 27       	eor	r25, r25
    1612:	87 fd       	sbrc	r24, 7
    1614:	90 95       	com	r25
    1616:	82 0f       	add	r24, r18
    1618:	93 1f       	adc	r25, r19
    161a:	80 31       	cpi	r24, 0x10	; 16
    161c:	91 05       	cpc	r25, r1
    161e:	5c f4       	brge	.+22     	; 0x1636 <CLCD_voidScrollTextSinsoidalwave+0xd4>
			{
				CLCD_voidSendData(Copy_u8Text[i]);
    1620:	8f 85       	ldd	r24, Y+15	; 0x0f
    1622:	28 2f       	mov	r18, r24
    1624:	30 e0       	ldi	r19, 0x00	; 0
    1626:	8a 89       	ldd	r24, Y+18	; 0x12
    1628:	9b 89       	ldd	r25, Y+19	; 0x13
    162a:	fc 01       	movw	r30, r24
    162c:	e2 0f       	add	r30, r18
    162e:	f3 1f       	adc	r31, r19
    1630:	80 81       	ld	r24, Z
    1632:	0e 94 50 06 	call	0xca0	; 0xca0 <CLCD_voidSendData>
	{
		CLCD_voidSendCommand(0x01);    //Clear Display
		if(position >= 0) CLCD_voidSetXYPosition(position , (position%2));
		else if(position < 0) CLCD_voidSetXYPosition(0 , 0);

		for(u8 i=0 ; i<STR_u8Lenght ; i++)
    1636:	8f 85       	ldd	r24, Y+15	; 0x0f
    1638:	8f 5f       	subi	r24, 0xFF	; 255
    163a:	8f 87       	std	Y+15, r24	; 0x0f
    163c:	9f 85       	ldd	r25, Y+15	; 0x0f
    163e:	89 89       	ldd	r24, Y+17	; 0x11
    1640:	98 17       	cp	r25, r24
    1642:	b8 f2       	brcs	.-82     	; 0x15f2 <CLCD_voidScrollTextSinsoidalwave+0x90>
    1644:	80 e0       	ldi	r24, 0x00	; 0
    1646:	90 e0       	ldi	r25, 0x00	; 0
    1648:	a6 e9       	ldi	r26, 0x96	; 150
    164a:	b3 e4       	ldi	r27, 0x43	; 67
    164c:	8b 87       	std	Y+11, r24	; 0x0b
    164e:	9c 87       	std	Y+12, r25	; 0x0c
    1650:	ad 87       	std	Y+13, r26	; 0x0d
    1652:	be 87       	std	Y+14, r27	; 0x0e
 */
void
_delay_ms(double __ms)
{
	uint16_t __ticks;
	double __tmp = ((F_CPU) / 4e3) * __ms;
    1654:	6b 85       	ldd	r22, Y+11	; 0x0b
    1656:	7c 85       	ldd	r23, Y+12	; 0x0c
    1658:	8d 85       	ldd	r24, Y+13	; 0x0d
    165a:	9e 85       	ldd	r25, Y+14	; 0x0e
    165c:	20 e0       	ldi	r18, 0x00	; 0
    165e:	30 e0       	ldi	r19, 0x00	; 0
    1660:	4a ef       	ldi	r20, 0xFA	; 250
    1662:	54 e4       	ldi	r21, 0x44	; 68
    1664:	0e 94 1f 02 	call	0x43e	; 0x43e <__mulsf3>
    1668:	dc 01       	movw	r26, r24
    166a:	cb 01       	movw	r24, r22
    166c:	8f 83       	std	Y+7, r24	; 0x07
    166e:	98 87       	std	Y+8, r25	; 0x08
    1670:	a9 87       	std	Y+9, r26	; 0x09
    1672:	ba 87       	std	Y+10, r27	; 0x0a
	if (__tmp < 1.0)
    1674:	6f 81       	ldd	r22, Y+7	; 0x07
    1676:	78 85       	ldd	r23, Y+8	; 0x08
    1678:	89 85       	ldd	r24, Y+9	; 0x09
    167a:	9a 85       	ldd	r25, Y+10	; 0x0a
    167c:	20 e0       	ldi	r18, 0x00	; 0
    167e:	30 e0       	ldi	r19, 0x00	; 0
    1680:	40 e8       	ldi	r20, 0x80	; 128
    1682:	5f e3       	ldi	r21, 0x3F	; 63
    1684:	0e 94 79 03 	call	0x6f2	; 0x6f2 <__ltsf2>
    1688:	88 23       	and	r24, r24
    168a:	2c f4       	brge	.+10     	; 0x1696 <CLCD_voidScrollTextSinsoidalwave+0x134>
		__ticks = 1;
    168c:	81 e0       	ldi	r24, 0x01	; 1
    168e:	90 e0       	ldi	r25, 0x00	; 0
    1690:	9e 83       	std	Y+6, r25	; 0x06
    1692:	8d 83       	std	Y+5, r24	; 0x05
    1694:	3f c0       	rjmp	.+126    	; 0x1714 <CLCD_voidScrollTextSinsoidalwave+0x1b2>
	else if (__tmp > 65535)
    1696:	6f 81       	ldd	r22, Y+7	; 0x07
    1698:	78 85       	ldd	r23, Y+8	; 0x08
    169a:	89 85       	ldd	r24, Y+9	; 0x09
    169c:	9a 85       	ldd	r25, Y+10	; 0x0a
    169e:	20 e0       	ldi	r18, 0x00	; 0
    16a0:	3f ef       	ldi	r19, 0xFF	; 255
    16a2:	4f e7       	ldi	r20, 0x7F	; 127
    16a4:	57 e4       	ldi	r21, 0x47	; 71
    16a6:	0e 94 19 03 	call	0x632	; 0x632 <__gtsf2>
    16aa:	18 16       	cp	r1, r24
    16ac:	4c f5       	brge	.+82     	; 0x1700 <CLCD_voidScrollTextSinsoidalwave+0x19e>
	{
		//	__ticks = requested delay in 1/10 ms
		__ticks = (uint16_t) (__ms * 10.0);
    16ae:	6b 85       	ldd	r22, Y+11	; 0x0b
    16b0:	7c 85       	ldd	r23, Y+12	; 0x0c
    16b2:	8d 85       	ldd	r24, Y+13	; 0x0d
    16b4:	9e 85       	ldd	r25, Y+14	; 0x0e
    16b6:	20 e0       	ldi	r18, 0x00	; 0
    16b8:	30 e0       	ldi	r19, 0x00	; 0
    16ba:	40 e2       	ldi	r20, 0x20	; 32
    16bc:	51 e4       	ldi	r21, 0x41	; 65
    16be:	0e 94 1f 02 	call	0x43e	; 0x43e <__mulsf3>
    16c2:	dc 01       	movw	r26, r24
    16c4:	cb 01       	movw	r24, r22
    16c6:	bc 01       	movw	r22, r24
    16c8:	cd 01       	movw	r24, r26
    16ca:	0e 94 49 00 	call	0x92	; 0x92 <__fixunssfsi>
    16ce:	dc 01       	movw	r26, r24
    16d0:	cb 01       	movw	r24, r22
    16d2:	9e 83       	std	Y+6, r25	; 0x06
    16d4:	8d 83       	std	Y+5, r24	; 0x05
    16d6:	0f c0       	rjmp	.+30     	; 0x16f6 <CLCD_voidScrollTextSinsoidalwave+0x194>
    16d8:	88 ec       	ldi	r24, 0xC8	; 200
    16da:	90 e0       	ldi	r25, 0x00	; 0
    16dc:	9c 83       	std	Y+4, r25	; 0x04
    16de:	8b 83       	std	Y+3, r24	; 0x03
    16e0:	8b 81       	ldd	r24, Y+3	; 0x03
    16e2:	9c 81       	ldd	r25, Y+4	; 0x04
    16e4:	01 97       	sbiw	r24, 0x01	; 1
    16e6:	f1 f7       	brne	.-4      	; 0x16e4 <CLCD_voidScrollTextSinsoidalwave+0x182>
    16e8:	9c 83       	std	Y+4, r25	; 0x04
    16ea:	8b 83       	std	Y+3, r24	; 0x03
		while(__ticks)
		{
			// wait 1/10 ms
			_delay_loop_2(((F_CPU) / 4e3) / 10);
			__ticks --;
    16ec:	8d 81       	ldd	r24, Y+5	; 0x05
    16ee:	9e 81       	ldd	r25, Y+6	; 0x06
    16f0:	01 97       	sbiw	r24, 0x01	; 1
    16f2:	9e 83       	std	Y+6, r25	; 0x06
    16f4:	8d 83       	std	Y+5, r24	; 0x05
		__ticks = 1;
	else if (__tmp > 65535)
	{
		//	__ticks = requested delay in 1/10 ms
		__ticks = (uint16_t) (__ms * 10.0);
		while(__ticks)
    16f6:	8d 81       	ldd	r24, Y+5	; 0x05
    16f8:	9e 81       	ldd	r25, Y+6	; 0x06
    16fa:	00 97       	sbiw	r24, 0x00	; 0
    16fc:	69 f7       	brne	.-38     	; 0x16d8 <CLCD_voidScrollTextSinsoidalwave+0x176>
    16fe:	14 c0       	rjmp	.+40     	; 0x1728 <CLCD_voidScrollTextSinsoidalwave+0x1c6>
			__ticks --;
		}
		return;
	}
	else
		__ticks = (uint16_t)__tmp;
    1700:	6f 81       	ldd	r22, Y+7	; 0x07
    1702:	78 85       	ldd	r23, Y+8	; 0x08
    1704:	89 85       	ldd	r24, Y+9	; 0x09
    1706:	9a 85       	ldd	r25, Y+10	; 0x0a
    1708:	0e 94 49 00 	call	0x92	; 0x92 <__fixunssfsi>
    170c:	dc 01       	movw	r26, r24
    170e:	cb 01       	movw	r24, r22
    1710:	9e 83       	std	Y+6, r25	; 0x06
    1712:	8d 83       	std	Y+5, r24	; 0x05
    1714:	8d 81       	ldd	r24, Y+5	; 0x05
    1716:	9e 81       	ldd	r25, Y+6	; 0x06
    1718:	9a 83       	std	Y+2, r25	; 0x02
    171a:	89 83       	std	Y+1, r24	; 0x01
    171c:	89 81       	ldd	r24, Y+1	; 0x01
    171e:	9a 81       	ldd	r25, Y+2	; 0x02
    1720:	01 97       	sbiw	r24, 0x01	; 1
    1722:	f1 f7       	brne	.-4      	; 0x1720 <CLCD_voidScrollTextSinsoidalwave+0x1be>
    1724:	9a 83       	std	Y+2, r25	; 0x02
    1726:	89 83       	std	Y+1, r24	; 0x01
	while(Copy_u8Text[STR_u8Lenght] != '\0')
	{
		STR_u8Lenght++;
	}

	for(s8 position = -STR_u8Lenght ; position<=16 ; position++)
    1728:	88 89       	ldd	r24, Y+16	; 0x10
    172a:	8f 5f       	subi	r24, 0xFF	; 255
    172c:	88 8b       	std	Y+16, r24	; 0x10
    172e:	88 89       	ldd	r24, Y+16	; 0x10
    1730:	81 31       	cpi	r24, 0x11	; 17
    1732:	0c f4       	brge	.+2      	; 0x1736 <CLCD_voidScrollTextSinsoidalwave+0x1d4>
    1734:	36 cf       	rjmp	.-404    	; 0x15a2 <CLCD_voidScrollTextSinsoidalwave+0x40>
				CLCD_voidSendData(Copy_u8Text[i]);
			}
		}
		_delay_ms(300);
	}
}
    1736:	65 96       	adiw	r28, 0x15	; 21
    1738:	0f b6       	in	r0, 0x3f	; 63
    173a:	f8 94       	cli
    173c:	de bf       	out	0x3e, r29	; 62
    173e:	0f be       	out	0x3f, r0	; 63
    1740:	cd bf       	out	0x3d, r28	; 61
    1742:	cf 91       	pop	r28
    1744:	df 91       	pop	r29
    1746:	08 95       	ret

00001748 <CLCD_voidClearDisplay>:


void CLCD_voidClearDisplay(void)
{
    1748:	df 93       	push	r29
    174a:	cf 93       	push	r28
    174c:	cd b7       	in	r28, 0x3d	; 61
    174e:	de b7       	in	r29, 0x3e	; 62
    1750:	2e 97       	sbiw	r28, 0x0e	; 14
    1752:	0f b6       	in	r0, 0x3f	; 63
    1754:	f8 94       	cli
    1756:	de bf       	out	0x3e, r29	; 62
    1758:	0f be       	out	0x3f, r0	; 63
    175a:	cd bf       	out	0x3d, r28	; 61
	CLCD_voidSendCommand(0x01);
    175c:	81 e0       	ldi	r24, 0x01	; 1
    175e:	0e 94 ee 06 	call	0xddc	; 0xddc <CLCD_voidSendCommand>
    1762:	80 e0       	ldi	r24, 0x00	; 0
    1764:	90 e0       	ldi	r25, 0x00	; 0
    1766:	a0 e0       	ldi	r26, 0x00	; 0
    1768:	b0 e4       	ldi	r27, 0x40	; 64
    176a:	8b 87       	std	Y+11, r24	; 0x0b
    176c:	9c 87       	std	Y+12, r25	; 0x0c
    176e:	ad 87       	std	Y+13, r26	; 0x0d
    1770:	be 87       	std	Y+14, r27	; 0x0e
 */
void
_delay_ms(double __ms)
{
	uint16_t __ticks;
	double __tmp = ((F_CPU) / 4e3) * __ms;
    1772:	6b 85       	ldd	r22, Y+11	; 0x0b
    1774:	7c 85       	ldd	r23, Y+12	; 0x0c
    1776:	8d 85       	ldd	r24, Y+13	; 0x0d
    1778:	9e 85       	ldd	r25, Y+14	; 0x0e
    177a:	20 e0       	ldi	r18, 0x00	; 0
    177c:	30 e0       	ldi	r19, 0x00	; 0
    177e:	4a ef       	ldi	r20, 0xFA	; 250
    1780:	54 e4       	ldi	r21, 0x44	; 68
    1782:	0e 94 1f 02 	call	0x43e	; 0x43e <__mulsf3>
    1786:	dc 01       	movw	r26, r24
    1788:	cb 01       	movw	r24, r22
    178a:	8f 83       	std	Y+7, r24	; 0x07
    178c:	98 87       	std	Y+8, r25	; 0x08
    178e:	a9 87       	std	Y+9, r26	; 0x09
    1790:	ba 87       	std	Y+10, r27	; 0x0a
	if (__tmp < 1.0)
    1792:	6f 81       	ldd	r22, Y+7	; 0x07
    1794:	78 85       	ldd	r23, Y+8	; 0x08
    1796:	89 85       	ldd	r24, Y+9	; 0x09
    1798:	9a 85       	ldd	r25, Y+10	; 0x0a
    179a:	20 e0       	ldi	r18, 0x00	; 0
    179c:	30 e0       	ldi	r19, 0x00	; 0
    179e:	40 e8       	ldi	r20, 0x80	; 128
    17a0:	5f e3       	ldi	r21, 0x3F	; 63
    17a2:	0e 94 79 03 	call	0x6f2	; 0x6f2 <__ltsf2>
    17a6:	88 23       	and	r24, r24
    17a8:	2c f4       	brge	.+10     	; 0x17b4 <CLCD_voidClearDisplay+0x6c>
		__ticks = 1;
    17aa:	81 e0       	ldi	r24, 0x01	; 1
    17ac:	90 e0       	ldi	r25, 0x00	; 0
    17ae:	9e 83       	std	Y+6, r25	; 0x06
    17b0:	8d 83       	std	Y+5, r24	; 0x05
    17b2:	3f c0       	rjmp	.+126    	; 0x1832 <CLCD_voidClearDisplay+0xea>
	else if (__tmp > 65535)
    17b4:	6f 81       	ldd	r22, Y+7	; 0x07
    17b6:	78 85       	ldd	r23, Y+8	; 0x08
    17b8:	89 85       	ldd	r24, Y+9	; 0x09
    17ba:	9a 85       	ldd	r25, Y+10	; 0x0a
    17bc:	20 e0       	ldi	r18, 0x00	; 0
    17be:	3f ef       	ldi	r19, 0xFF	; 255
    17c0:	4f e7       	ldi	r20, 0x7F	; 127
    17c2:	57 e4       	ldi	r21, 0x47	; 71
    17c4:	0e 94 19 03 	call	0x632	; 0x632 <__gtsf2>
    17c8:	18 16       	cp	r1, r24
    17ca:	4c f5       	brge	.+82     	; 0x181e <CLCD_voidClearDisplay+0xd6>
	{
		//	__ticks = requested delay in 1/10 ms
		__ticks = (uint16_t) (__ms * 10.0);
    17cc:	6b 85       	ldd	r22, Y+11	; 0x0b
    17ce:	7c 85       	ldd	r23, Y+12	; 0x0c
    17d0:	8d 85       	ldd	r24, Y+13	; 0x0d
    17d2:	9e 85       	ldd	r25, Y+14	; 0x0e
    17d4:	20 e0       	ldi	r18, 0x00	; 0
    17d6:	30 e0       	ldi	r19, 0x00	; 0
    17d8:	40 e2       	ldi	r20, 0x20	; 32
    17da:	51 e4       	ldi	r21, 0x41	; 65
    17dc:	0e 94 1f 02 	call	0x43e	; 0x43e <__mulsf3>
    17e0:	dc 01       	movw	r26, r24
    17e2:	cb 01       	movw	r24, r22
    17e4:	bc 01       	movw	r22, r24
    17e6:	cd 01       	movw	r24, r26
    17e8:	0e 94 49 00 	call	0x92	; 0x92 <__fixunssfsi>
    17ec:	dc 01       	movw	r26, r24
    17ee:	cb 01       	movw	r24, r22
    17f0:	9e 83       	std	Y+6, r25	; 0x06
    17f2:	8d 83       	std	Y+5, r24	; 0x05
    17f4:	0f c0       	rjmp	.+30     	; 0x1814 <CLCD_voidClearDisplay+0xcc>
    17f6:	88 ec       	ldi	r24, 0xC8	; 200
    17f8:	90 e0       	ldi	r25, 0x00	; 0
    17fa:	9c 83       	std	Y+4, r25	; 0x04
    17fc:	8b 83       	std	Y+3, r24	; 0x03
    17fe:	8b 81       	ldd	r24, Y+3	; 0x03
    1800:	9c 81       	ldd	r25, Y+4	; 0x04
    1802:	01 97       	sbiw	r24, 0x01	; 1
    1804:	f1 f7       	brne	.-4      	; 0x1802 <CLCD_voidClearDisplay+0xba>
    1806:	9c 83       	std	Y+4, r25	; 0x04
    1808:	8b 83       	std	Y+3, r24	; 0x03
		while(__ticks)
		{
			// wait 1/10 ms
			_delay_loop_2(((F_CPU) / 4e3) / 10);
			__ticks --;
    180a:	8d 81       	ldd	r24, Y+5	; 0x05
    180c:	9e 81       	ldd	r25, Y+6	; 0x06
    180e:	01 97       	sbiw	r24, 0x01	; 1
    1810:	9e 83       	std	Y+6, r25	; 0x06
    1812:	8d 83       	std	Y+5, r24	; 0x05
		__ticks = 1;
	else if (__tmp > 65535)
	{
		//	__ticks = requested delay in 1/10 ms
		__ticks = (uint16_t) (__ms * 10.0);
		while(__ticks)
    1814:	8d 81       	ldd	r24, Y+5	; 0x05
    1816:	9e 81       	ldd	r25, Y+6	; 0x06
    1818:	00 97       	sbiw	r24, 0x00	; 0
    181a:	69 f7       	brne	.-38     	; 0x17f6 <CLCD_voidClearDisplay+0xae>
    181c:	14 c0       	rjmp	.+40     	; 0x1846 <CLCD_voidClearDisplay+0xfe>
			__ticks --;
		}
		return;
	}
	else
		__ticks = (uint16_t)__tmp;
    181e:	6f 81       	ldd	r22, Y+7	; 0x07
    1820:	78 85       	ldd	r23, Y+8	; 0x08
    1822:	89 85       	ldd	r24, Y+9	; 0x09
    1824:	9a 85       	ldd	r25, Y+10	; 0x0a
    1826:	0e 94 49 00 	call	0x92	; 0x92 <__fixunssfsi>
    182a:	dc 01       	movw	r26, r24
    182c:	cb 01       	movw	r24, r22
    182e:	9e 83       	std	Y+6, r25	; 0x06
    1830:	8d 83       	std	Y+5, r24	; 0x05
    1832:	8d 81       	ldd	r24, Y+5	; 0x05
    1834:	9e 81       	ldd	r25, Y+6	; 0x06
    1836:	9a 83       	std	Y+2, r25	; 0x02
    1838:	89 83       	std	Y+1, r24	; 0x01
    183a:	89 81       	ldd	r24, Y+1	; 0x01
    183c:	9a 81       	ldd	r25, Y+2	; 0x02
    183e:	01 97       	sbiw	r24, 0x01	; 1
    1840:	f1 f7       	brne	.-4      	; 0x183e <CLCD_voidClearDisplay+0xf6>
    1842:	9a 83       	std	Y+2, r25	; 0x02
    1844:	89 83       	std	Y+1, r24	; 0x01
	_delay_ms(2);
}
    1846:	2e 96       	adiw	r28, 0x0e	; 14
    1848:	0f b6       	in	r0, 0x3f	; 63
    184a:	f8 94       	cli
    184c:	de bf       	out	0x3e, r29	; 62
    184e:	0f be       	out	0x3f, r0	; 63
    1850:	cd bf       	out	0x3d, r28	; 61
    1852:	cf 91       	pop	r28
    1854:	df 91       	pop	r29
    1856:	08 95       	ret

00001858 <CLCD_voidShift>:

void CLCD_voidShift(CLCD_SHIFT Copy_enuShiftDirection)
{
    1858:	df 93       	push	r29
    185a:	cf 93       	push	r28
    185c:	0f 92       	push	r0
    185e:	cd b7       	in	r28, 0x3d	; 61
    1860:	de b7       	in	r29, 0x3e	; 62
    1862:	89 83       	std	Y+1, r24	; 0x01
	if((Copy_enuShiftDirection == CLCD_SHIFT_RIGHT)||(Copy_enuShiftDirection == CLCD_SHIFT_LEFT))
    1864:	89 81       	ldd	r24, Y+1	; 0x01
    1866:	8c 31       	cpi	r24, 0x1C	; 28
    1868:	19 f0       	breq	.+6      	; 0x1870 <CLCD_voidShift+0x18>
    186a:	89 81       	ldd	r24, Y+1	; 0x01
    186c:	88 31       	cpi	r24, 0x18	; 24
    186e:	19 f4       	brne	.+6      	; 0x1876 <CLCD_voidShift+0x1e>
	{
		CLCD_voidSendCommand(Copy_enuShiftDirection);
    1870:	89 81       	ldd	r24, Y+1	; 0x01
    1872:	0e 94 ee 06 	call	0xddc	; 0xddc <CLCD_voidSendCommand>
	}
}
    1876:	0f 90       	pop	r0
    1878:	cf 91       	pop	r28
    187a:	df 91       	pop	r29
    187c:	08 95       	ret

0000187e <CLCD_voidCreateShape>:


void CLCD_voidCreateShape(u8 Copy_u8Location,u8 *Copy_pu8Shape)
{
    187e:	df 93       	push	r29
    1880:	cf 93       	push	r28
    1882:	00 d0       	rcall	.+0      	; 0x1884 <CLCD_voidCreateShape+0x6>
    1884:	00 d0       	rcall	.+0      	; 0x1886 <CLCD_voidCreateShape+0x8>
    1886:	cd b7       	in	r28, 0x3d	; 61
    1888:	de b7       	in	r29, 0x3e	; 62
    188a:	8a 83       	std	Y+2, r24	; 0x02
    188c:	7c 83       	std	Y+4, r23	; 0x04
    188e:	6b 83       	std	Y+3, r22	; 0x03
	if((Copy_u8Location <= 7) && (Copy_u8Location >= 0))
    1890:	8a 81       	ldd	r24, Y+2	; 0x02
    1892:	88 30       	cpi	r24, 0x08	; 8
    1894:	f8 f4       	brcc	.+62     	; 0x18d4 <CLCD_voidCreateShape+0x56>
	{
		CLCD_voidSendCommand( 0x40 | (Copy_u8Location *8));
    1896:	8a 81       	ldd	r24, Y+2	; 0x02
    1898:	88 2f       	mov	r24, r24
    189a:	90 e0       	ldi	r25, 0x00	; 0
    189c:	88 0f       	add	r24, r24
    189e:	99 1f       	adc	r25, r25
    18a0:	88 0f       	add	r24, r24
    18a2:	99 1f       	adc	r25, r25
    18a4:	88 0f       	add	r24, r24
    18a6:	99 1f       	adc	r25, r25
    18a8:	80 64       	ori	r24, 0x40	; 64
    18aa:	0e 94 ee 06 	call	0xddc	; 0xddc <CLCD_voidSendCommand>
		for(u8 i = 0 ; i<8 ; i++ )
    18ae:	19 82       	std	Y+1, r1	; 0x01
    18b0:	0e c0       	rjmp	.+28     	; 0x18ce <CLCD_voidCreateShape+0x50>
		{
			CLCD_voidSendData(Copy_pu8Shape[i]);
    18b2:	89 81       	ldd	r24, Y+1	; 0x01
    18b4:	28 2f       	mov	r18, r24
    18b6:	30 e0       	ldi	r19, 0x00	; 0
    18b8:	8b 81       	ldd	r24, Y+3	; 0x03
    18ba:	9c 81       	ldd	r25, Y+4	; 0x04
    18bc:	fc 01       	movw	r30, r24
    18be:	e2 0f       	add	r30, r18
    18c0:	f3 1f       	adc	r31, r19
    18c2:	80 81       	ld	r24, Z
    18c4:	0e 94 50 06 	call	0xca0	; 0xca0 <CLCD_voidSendData>
void CLCD_voidCreateShape(u8 Copy_u8Location,u8 *Copy_pu8Shape)
{
	if((Copy_u8Location <= 7) && (Copy_u8Location >= 0))
	{
		CLCD_voidSendCommand( 0x40 | (Copy_u8Location *8));
		for(u8 i = 0 ; i<8 ; i++ )
    18c8:	89 81       	ldd	r24, Y+1	; 0x01
    18ca:	8f 5f       	subi	r24, 0xFF	; 255
    18cc:	89 83       	std	Y+1, r24	; 0x01
    18ce:	89 81       	ldd	r24, Y+1	; 0x01
    18d0:	88 30       	cpi	r24, 0x08	; 8
    18d2:	78 f3       	brcs	.-34     	; 0x18b2 <CLCD_voidCreateShape+0x34>
		{
			CLCD_voidSendData(Copy_pu8Shape[i]);
		}
	}
}
    18d4:	0f 90       	pop	r0
    18d6:	0f 90       	pop	r0
    18d8:	0f 90       	pop	r0
    18da:	0f 90       	pop	r0
    18dc:	cf 91       	pop	r28
    18de:	df 91       	pop	r29
    18e0:	08 95       	ret

000018e2 <CLCD_voidDrawShape>:


void CLCD_voidDrawShape(u8 Copy_u8Location)
{
    18e2:	df 93       	push	r29
    18e4:	cf 93       	push	r28
    18e6:	0f 92       	push	r0
    18e8:	cd b7       	in	r28, 0x3d	; 61
    18ea:	de b7       	in	r29, 0x3e	; 62
    18ec:	89 83       	std	Y+1, r24	; 0x01
	CLCD_voidSendData(Copy_u8Location);
    18ee:	89 81       	ldd	r24, Y+1	; 0x01
    18f0:	0e 94 50 06 	call	0xca0	; 0xca0 <CLCD_voidSendData>
}
    18f4:	0f 90       	pop	r0
    18f6:	cf 91       	pop	r28
    18f8:	df 91       	pop	r29
    18fa:	08 95       	ret

000018fc <CLCD_voidSendFloat>:

void CLCD_voidSendFloat(f64 Copy_s32float)
{
    18fc:	df 93       	push	r29
    18fe:	cf 93       	push	r28
    1900:	cd b7       	in	r28, 0x3d	; 61
    1902:	de b7       	in	r29, 0x3e	; 62
    1904:	6c 97       	sbiw	r28, 0x1c	; 28
    1906:	0f b6       	in	r0, 0x3f	; 63
    1908:	f8 94       	cli
    190a:	de bf       	out	0x3e, r29	; 62
    190c:	0f be       	out	0x3f, r0	; 63
    190e:	cd bf       	out	0x3d, r28	; 61
    1910:	69 8f       	std	Y+25, r22	; 0x19
    1912:	7a 8f       	std	Y+26, r23	; 0x1a
    1914:	8b 8f       	std	Y+27, r24	; 0x1b
    1916:	9c 8f       	std	Y+28, r25	; 0x1c
	int integer_part = (int)Copy_s32float;          // Extract the integer part
    1918:	69 8d       	ldd	r22, Y+25	; 0x19
    191a:	7a 8d       	ldd	r23, Y+26	; 0x1a
    191c:	8b 8d       	ldd	r24, Y+27	; 0x1b
    191e:	9c 8d       	ldd	r25, Y+28	; 0x1c
    1920:	0e 94 07 04 	call	0x80e	; 0x80e <__fixsfsi>
    1924:	dc 01       	movw	r26, r24
    1926:	cb 01       	movw	r24, r22
    1928:	9c 83       	std	Y+4, r25	; 0x04
    192a:	8b 83       	std	Y+3, r24	; 0x03
	int decimal_part = (int)((Copy_s32float - integer_part) * 100);  // Extract the decimal part (2 decimal places)
    192c:	8b 81       	ldd	r24, Y+3	; 0x03
    192e:	9c 81       	ldd	r25, Y+4	; 0x04
    1930:	aa 27       	eor	r26, r26
    1932:	97 fd       	sbrc	r25, 7
    1934:	a0 95       	com	r26
    1936:	ba 2f       	mov	r27, r26
    1938:	bc 01       	movw	r22, r24
    193a:	cd 01       	movw	r24, r26
    193c:	0e 94 a9 03 	call	0x752	; 0x752 <__floatsisf>
    1940:	9b 01       	movw	r18, r22
    1942:	ac 01       	movw	r20, r24
    1944:	69 8d       	ldd	r22, Y+25	; 0x19
    1946:	7a 8d       	ldd	r23, Y+26	; 0x1a
    1948:	8b 8d       	ldd	r24, Y+27	; 0x1b
    194a:	9c 8d       	ldd	r25, Y+28	; 0x1c
    194c:	0e 94 c1 01 	call	0x382	; 0x382 <__subsf3>
    1950:	dc 01       	movw	r26, r24
    1952:	cb 01       	movw	r24, r22
    1954:	bc 01       	movw	r22, r24
    1956:	cd 01       	movw	r24, r26
    1958:	20 e0       	ldi	r18, 0x00	; 0
    195a:	30 e0       	ldi	r19, 0x00	; 0
    195c:	48 ec       	ldi	r20, 0xC8	; 200
    195e:	52 e4       	ldi	r21, 0x42	; 66
    1960:	0e 94 1f 02 	call	0x43e	; 0x43e <__mulsf3>
    1964:	dc 01       	movw	r26, r24
    1966:	cb 01       	movw	r24, r22
    1968:	bc 01       	movw	r22, r24
    196a:	cd 01       	movw	r24, r26
    196c:	0e 94 07 04 	call	0x80e	; 0x80e <__fixsfsi>
    1970:	dc 01       	movw	r26, r24
    1972:	cb 01       	movw	r24, r22
    1974:	9a 83       	std	Y+2, r25	; 0x02
    1976:	89 83       	std	Y+1, r24	; 0x01

	char buffer[20];  // Buffer to hold the converted string

	// Format and print the integer and decimal parts separately
	sprintf(buffer, "%d.%02d", integer_part, decimal_part);
    1978:	8d b7       	in	r24, 0x3d	; 61
    197a:	9e b7       	in	r25, 0x3e	; 62
    197c:	08 97       	sbiw	r24, 0x08	; 8
    197e:	0f b6       	in	r0, 0x3f	; 63
    1980:	f8 94       	cli
    1982:	9e bf       	out	0x3e, r25	; 62
    1984:	0f be       	out	0x3f, r0	; 63
    1986:	8d bf       	out	0x3d, r24	; 61
    1988:	ed b7       	in	r30, 0x3d	; 61
    198a:	fe b7       	in	r31, 0x3e	; 62
    198c:	31 96       	adiw	r30, 0x01	; 1
    198e:	ce 01       	movw	r24, r28
    1990:	05 96       	adiw	r24, 0x05	; 5
    1992:	91 83       	std	Z+1, r25	; 0x01
    1994:	80 83       	st	Z, r24
    1996:	80 e6       	ldi	r24, 0x60	; 96
    1998:	90 e0       	ldi	r25, 0x00	; 0
    199a:	93 83       	std	Z+3, r25	; 0x03
    199c:	82 83       	std	Z+2, r24	; 0x02
    199e:	8b 81       	ldd	r24, Y+3	; 0x03
    19a0:	9c 81       	ldd	r25, Y+4	; 0x04
    19a2:	95 83       	std	Z+5, r25	; 0x05
    19a4:	84 83       	std	Z+4, r24	; 0x04
    19a6:	89 81       	ldd	r24, Y+1	; 0x01
    19a8:	9a 81       	ldd	r25, Y+2	; 0x02
    19aa:	97 83       	std	Z+7, r25	; 0x07
    19ac:	86 83       	std	Z+6, r24	; 0x06
    19ae:	0e 94 d3 13 	call	0x27a6	; 0x27a6 <sprintf>
    19b2:	8d b7       	in	r24, 0x3d	; 61
    19b4:	9e b7       	in	r25, 0x3e	; 62
    19b6:	08 96       	adiw	r24, 0x08	; 8
    19b8:	0f b6       	in	r0, 0x3f	; 63
    19ba:	f8 94       	cli
    19bc:	9e bf       	out	0x3e, r25	; 62
    19be:	0f be       	out	0x3f, r0	; 63
    19c0:	8d bf       	out	0x3d, r24	; 61

	CLCD_voidSendString(buffer);
    19c2:	ce 01       	movw	r24, r28
    19c4:	05 96       	adiw	r24, 0x05	; 5
    19c6:	0e 94 2d 08 	call	0x105a	; 0x105a <CLCD_voidSendString>
}
    19ca:	6c 96       	adiw	r28, 0x1c	; 28
    19cc:	0f b6       	in	r0, 0x3f	; 63
    19ce:	f8 94       	cli
    19d0:	de bf       	out	0x3e, r29	; 62
    19d2:	0f be       	out	0x3f, r0	; 63
    19d4:	cd bf       	out	0x3d, r28	; 61
    19d6:	cf 91       	pop	r28
    19d8:	df 91       	pop	r29
    19da:	08 95       	ret

000019dc <DIO_voidSetPinDirection>:

#include "DIO_interface.h"
#include "DIO_register.h"

void DIO_voidSetPinDirection(u8 Copy_u8Port, u8 Copy_u8Pin, u8 Copy_u8Direction)
{
    19dc:	df 93       	push	r29
    19de:	cf 93       	push	r28
    19e0:	cd b7       	in	r28, 0x3d	; 61
    19e2:	de b7       	in	r29, 0x3e	; 62
    19e4:	27 97       	sbiw	r28, 0x07	; 7
    19e6:	0f b6       	in	r0, 0x3f	; 63
    19e8:	f8 94       	cli
    19ea:	de bf       	out	0x3e, r29	; 62
    19ec:	0f be       	out	0x3f, r0	; 63
    19ee:	cd bf       	out	0x3d, r28	; 61
    19f0:	89 83       	std	Y+1, r24	; 0x01
    19f2:	6a 83       	std	Y+2, r22	; 0x02
    19f4:	4b 83       	std	Y+3, r20	; 0x03
	if(Copy_u8Direction == DIO_u8INPUT)
    19f6:	8b 81       	ldd	r24, Y+3	; 0x03
    19f8:	88 23       	and	r24, r24
    19fa:	09 f0       	breq	.+2      	; 0x19fe <DIO_voidSetPinDirection+0x22>
    19fc:	74 c0       	rjmp	.+232    	; 0x1ae6 <DIO_voidSetPinDirection+0x10a>
	{
		switch(Copy_u8Port)
    19fe:	89 81       	ldd	r24, Y+1	; 0x01
    1a00:	28 2f       	mov	r18, r24
    1a02:	30 e0       	ldi	r19, 0x00	; 0
    1a04:	3f 83       	std	Y+7, r19	; 0x07
    1a06:	2e 83       	std	Y+6, r18	; 0x06
    1a08:	8e 81       	ldd	r24, Y+6	; 0x06
    1a0a:	9f 81       	ldd	r25, Y+7	; 0x07
    1a0c:	81 30       	cpi	r24, 0x01	; 1
    1a0e:	91 05       	cpc	r25, r1
    1a10:	59 f1       	breq	.+86     	; 0x1a68 <DIO_voidSetPinDirection+0x8c>
    1a12:	2e 81       	ldd	r18, Y+6	; 0x06
    1a14:	3f 81       	ldd	r19, Y+7	; 0x07
    1a16:	22 30       	cpi	r18, 0x02	; 2
    1a18:	31 05       	cpc	r19, r1
    1a1a:	2c f4       	brge	.+10     	; 0x1a26 <DIO_voidSetPinDirection+0x4a>
    1a1c:	8e 81       	ldd	r24, Y+6	; 0x06
    1a1e:	9f 81       	ldd	r25, Y+7	; 0x07
    1a20:	00 97       	sbiw	r24, 0x00	; 0
    1a22:	69 f0       	breq	.+26     	; 0x1a3e <DIO_voidSetPinDirection+0x62>
    1a24:	d2 c0       	rjmp	.+420    	; 0x1bca <DIO_voidSetPinDirection+0x1ee>
    1a26:	2e 81       	ldd	r18, Y+6	; 0x06
    1a28:	3f 81       	ldd	r19, Y+7	; 0x07
    1a2a:	22 30       	cpi	r18, 0x02	; 2
    1a2c:	31 05       	cpc	r19, r1
    1a2e:	89 f1       	breq	.+98     	; 0x1a92 <DIO_voidSetPinDirection+0xb6>
    1a30:	8e 81       	ldd	r24, Y+6	; 0x06
    1a32:	9f 81       	ldd	r25, Y+7	; 0x07
    1a34:	83 30       	cpi	r24, 0x03	; 3
    1a36:	91 05       	cpc	r25, r1
    1a38:	09 f4       	brne	.+2      	; 0x1a3c <DIO_voidSetPinDirection+0x60>
    1a3a:	40 c0       	rjmp	.+128    	; 0x1abc <DIO_voidSetPinDirection+0xe0>
    1a3c:	c6 c0       	rjmp	.+396    	; 0x1bca <DIO_voidSetPinDirection+0x1ee>
		{
		case DIO_u8PORTA : CLR_BIT(DDRA , Copy_u8Pin); break; 
    1a3e:	aa e3       	ldi	r26, 0x3A	; 58
    1a40:	b0 e0       	ldi	r27, 0x00	; 0
    1a42:	ea e3       	ldi	r30, 0x3A	; 58
    1a44:	f0 e0       	ldi	r31, 0x00	; 0
    1a46:	80 81       	ld	r24, Z
    1a48:	48 2f       	mov	r20, r24
    1a4a:	8a 81       	ldd	r24, Y+2	; 0x02
    1a4c:	28 2f       	mov	r18, r24
    1a4e:	30 e0       	ldi	r19, 0x00	; 0
    1a50:	81 e0       	ldi	r24, 0x01	; 1
    1a52:	90 e0       	ldi	r25, 0x00	; 0
    1a54:	02 2e       	mov	r0, r18
    1a56:	02 c0       	rjmp	.+4      	; 0x1a5c <DIO_voidSetPinDirection+0x80>
    1a58:	88 0f       	add	r24, r24
    1a5a:	99 1f       	adc	r25, r25
    1a5c:	0a 94       	dec	r0
    1a5e:	e2 f7       	brpl	.-8      	; 0x1a58 <DIO_voidSetPinDirection+0x7c>
    1a60:	80 95       	com	r24
    1a62:	84 23       	and	r24, r20
    1a64:	8c 93       	st	X, r24
    1a66:	b1 c0       	rjmp	.+354    	; 0x1bca <DIO_voidSetPinDirection+0x1ee>
		case DIO_u8PORTB : CLR_BIT(DDRB , Copy_u8Pin); break;
    1a68:	a7 e3       	ldi	r26, 0x37	; 55
    1a6a:	b0 e0       	ldi	r27, 0x00	; 0
    1a6c:	e7 e3       	ldi	r30, 0x37	; 55
    1a6e:	f0 e0       	ldi	r31, 0x00	; 0
    1a70:	80 81       	ld	r24, Z
    1a72:	48 2f       	mov	r20, r24
    1a74:	8a 81       	ldd	r24, Y+2	; 0x02
    1a76:	28 2f       	mov	r18, r24
    1a78:	30 e0       	ldi	r19, 0x00	; 0
    1a7a:	81 e0       	ldi	r24, 0x01	; 1
    1a7c:	90 e0       	ldi	r25, 0x00	; 0
    1a7e:	02 2e       	mov	r0, r18
    1a80:	02 c0       	rjmp	.+4      	; 0x1a86 <DIO_voidSetPinDirection+0xaa>
    1a82:	88 0f       	add	r24, r24
    1a84:	99 1f       	adc	r25, r25
    1a86:	0a 94       	dec	r0
    1a88:	e2 f7       	brpl	.-8      	; 0x1a82 <DIO_voidSetPinDirection+0xa6>
    1a8a:	80 95       	com	r24
    1a8c:	84 23       	and	r24, r20
    1a8e:	8c 93       	st	X, r24
    1a90:	9c c0       	rjmp	.+312    	; 0x1bca <DIO_voidSetPinDirection+0x1ee>
		case DIO_u8PORTC : CLR_BIT(DDRC , Copy_u8Pin); break;
    1a92:	a4 e3       	ldi	r26, 0x34	; 52
    1a94:	b0 e0       	ldi	r27, 0x00	; 0
    1a96:	e4 e3       	ldi	r30, 0x34	; 52
    1a98:	f0 e0       	ldi	r31, 0x00	; 0
    1a9a:	80 81       	ld	r24, Z
    1a9c:	48 2f       	mov	r20, r24
    1a9e:	8a 81       	ldd	r24, Y+2	; 0x02
    1aa0:	28 2f       	mov	r18, r24
    1aa2:	30 e0       	ldi	r19, 0x00	; 0
    1aa4:	81 e0       	ldi	r24, 0x01	; 1
    1aa6:	90 e0       	ldi	r25, 0x00	; 0
    1aa8:	02 2e       	mov	r0, r18
    1aaa:	02 c0       	rjmp	.+4      	; 0x1ab0 <DIO_voidSetPinDirection+0xd4>
    1aac:	88 0f       	add	r24, r24
    1aae:	99 1f       	adc	r25, r25
    1ab0:	0a 94       	dec	r0
    1ab2:	e2 f7       	brpl	.-8      	; 0x1aac <DIO_voidSetPinDirection+0xd0>
    1ab4:	80 95       	com	r24
    1ab6:	84 23       	and	r24, r20
    1ab8:	8c 93       	st	X, r24
    1aba:	87 c0       	rjmp	.+270    	; 0x1bca <DIO_voidSetPinDirection+0x1ee>
		case DIO_u8PORTD : CLR_BIT(DDRD , Copy_u8Pin); break;
    1abc:	a1 e3       	ldi	r26, 0x31	; 49
    1abe:	b0 e0       	ldi	r27, 0x00	; 0
    1ac0:	e1 e3       	ldi	r30, 0x31	; 49
    1ac2:	f0 e0       	ldi	r31, 0x00	; 0
    1ac4:	80 81       	ld	r24, Z
    1ac6:	48 2f       	mov	r20, r24
    1ac8:	8a 81       	ldd	r24, Y+2	; 0x02
    1aca:	28 2f       	mov	r18, r24
    1acc:	30 e0       	ldi	r19, 0x00	; 0
    1ace:	81 e0       	ldi	r24, 0x01	; 1
    1ad0:	90 e0       	ldi	r25, 0x00	; 0
    1ad2:	02 2e       	mov	r0, r18
    1ad4:	02 c0       	rjmp	.+4      	; 0x1ada <DIO_voidSetPinDirection+0xfe>
    1ad6:	88 0f       	add	r24, r24
    1ad8:	99 1f       	adc	r25, r25
    1ada:	0a 94       	dec	r0
    1adc:	e2 f7       	brpl	.-8      	; 0x1ad6 <DIO_voidSetPinDirection+0xfa>
    1ade:	80 95       	com	r24
    1ae0:	84 23       	and	r24, r20
    1ae2:	8c 93       	st	X, r24
    1ae4:	72 c0       	rjmp	.+228    	; 0x1bca <DIO_voidSetPinDirection+0x1ee>
		}
	}
	else if(Copy_u8Direction == DIO_u8OUTPUT)
    1ae6:	8b 81       	ldd	r24, Y+3	; 0x03
    1ae8:	81 30       	cpi	r24, 0x01	; 1
    1aea:	09 f0       	breq	.+2      	; 0x1aee <DIO_voidSetPinDirection+0x112>
    1aec:	6e c0       	rjmp	.+220    	; 0x1bca <DIO_voidSetPinDirection+0x1ee>
	{
		switch(Copy_u8Port)
    1aee:	89 81       	ldd	r24, Y+1	; 0x01
    1af0:	28 2f       	mov	r18, r24
    1af2:	30 e0       	ldi	r19, 0x00	; 0
    1af4:	3d 83       	std	Y+5, r19	; 0x05
    1af6:	2c 83       	std	Y+4, r18	; 0x04
    1af8:	8c 81       	ldd	r24, Y+4	; 0x04
    1afa:	9d 81       	ldd	r25, Y+5	; 0x05
    1afc:	81 30       	cpi	r24, 0x01	; 1
    1afe:	91 05       	cpc	r25, r1
    1b00:	49 f1       	breq	.+82     	; 0x1b54 <DIO_voidSetPinDirection+0x178>
    1b02:	2c 81       	ldd	r18, Y+4	; 0x04
    1b04:	3d 81       	ldd	r19, Y+5	; 0x05
    1b06:	22 30       	cpi	r18, 0x02	; 2
    1b08:	31 05       	cpc	r19, r1
    1b0a:	2c f4       	brge	.+10     	; 0x1b16 <DIO_voidSetPinDirection+0x13a>
    1b0c:	8c 81       	ldd	r24, Y+4	; 0x04
    1b0e:	9d 81       	ldd	r25, Y+5	; 0x05
    1b10:	00 97       	sbiw	r24, 0x00	; 0
    1b12:	61 f0       	breq	.+24     	; 0x1b2c <DIO_voidSetPinDirection+0x150>
    1b14:	5a c0       	rjmp	.+180    	; 0x1bca <DIO_voidSetPinDirection+0x1ee>
    1b16:	2c 81       	ldd	r18, Y+4	; 0x04
    1b18:	3d 81       	ldd	r19, Y+5	; 0x05
    1b1a:	22 30       	cpi	r18, 0x02	; 2
    1b1c:	31 05       	cpc	r19, r1
    1b1e:	71 f1       	breq	.+92     	; 0x1b7c <DIO_voidSetPinDirection+0x1a0>
    1b20:	8c 81       	ldd	r24, Y+4	; 0x04
    1b22:	9d 81       	ldd	r25, Y+5	; 0x05
    1b24:	83 30       	cpi	r24, 0x03	; 3
    1b26:	91 05       	cpc	r25, r1
    1b28:	e9 f1       	breq	.+122    	; 0x1ba4 <DIO_voidSetPinDirection+0x1c8>
    1b2a:	4f c0       	rjmp	.+158    	; 0x1bca <DIO_voidSetPinDirection+0x1ee>
		{
		case DIO_u8PORTA : SET_BIT(DDRA , Copy_u8Pin); break;
    1b2c:	aa e3       	ldi	r26, 0x3A	; 58
    1b2e:	b0 e0       	ldi	r27, 0x00	; 0
    1b30:	ea e3       	ldi	r30, 0x3A	; 58
    1b32:	f0 e0       	ldi	r31, 0x00	; 0
    1b34:	80 81       	ld	r24, Z
    1b36:	48 2f       	mov	r20, r24
    1b38:	8a 81       	ldd	r24, Y+2	; 0x02
    1b3a:	28 2f       	mov	r18, r24
    1b3c:	30 e0       	ldi	r19, 0x00	; 0
    1b3e:	81 e0       	ldi	r24, 0x01	; 1
    1b40:	90 e0       	ldi	r25, 0x00	; 0
    1b42:	02 2e       	mov	r0, r18
    1b44:	02 c0       	rjmp	.+4      	; 0x1b4a <DIO_voidSetPinDirection+0x16e>
    1b46:	88 0f       	add	r24, r24
    1b48:	99 1f       	adc	r25, r25
    1b4a:	0a 94       	dec	r0
    1b4c:	e2 f7       	brpl	.-8      	; 0x1b46 <DIO_voidSetPinDirection+0x16a>
    1b4e:	84 2b       	or	r24, r20
    1b50:	8c 93       	st	X, r24
    1b52:	3b c0       	rjmp	.+118    	; 0x1bca <DIO_voidSetPinDirection+0x1ee>
		case DIO_u8PORTB : SET_BIT(DDRB , Copy_u8Pin); break;
    1b54:	a7 e3       	ldi	r26, 0x37	; 55
    1b56:	b0 e0       	ldi	r27, 0x00	; 0
    1b58:	e7 e3       	ldi	r30, 0x37	; 55
    1b5a:	f0 e0       	ldi	r31, 0x00	; 0
    1b5c:	80 81       	ld	r24, Z
    1b5e:	48 2f       	mov	r20, r24
    1b60:	8a 81       	ldd	r24, Y+2	; 0x02
    1b62:	28 2f       	mov	r18, r24
    1b64:	30 e0       	ldi	r19, 0x00	; 0
    1b66:	81 e0       	ldi	r24, 0x01	; 1
    1b68:	90 e0       	ldi	r25, 0x00	; 0
    1b6a:	02 2e       	mov	r0, r18
    1b6c:	02 c0       	rjmp	.+4      	; 0x1b72 <DIO_voidSetPinDirection+0x196>
    1b6e:	88 0f       	add	r24, r24
    1b70:	99 1f       	adc	r25, r25
    1b72:	0a 94       	dec	r0
    1b74:	e2 f7       	brpl	.-8      	; 0x1b6e <DIO_voidSetPinDirection+0x192>
    1b76:	84 2b       	or	r24, r20
    1b78:	8c 93       	st	X, r24
    1b7a:	27 c0       	rjmp	.+78     	; 0x1bca <DIO_voidSetPinDirection+0x1ee>
		case DIO_u8PORTC : SET_BIT(DDRC , Copy_u8Pin); break;
    1b7c:	a4 e3       	ldi	r26, 0x34	; 52
    1b7e:	b0 e0       	ldi	r27, 0x00	; 0
    1b80:	e4 e3       	ldi	r30, 0x34	; 52
    1b82:	f0 e0       	ldi	r31, 0x00	; 0
    1b84:	80 81       	ld	r24, Z
    1b86:	48 2f       	mov	r20, r24
    1b88:	8a 81       	ldd	r24, Y+2	; 0x02
    1b8a:	28 2f       	mov	r18, r24
    1b8c:	30 e0       	ldi	r19, 0x00	; 0
    1b8e:	81 e0       	ldi	r24, 0x01	; 1
    1b90:	90 e0       	ldi	r25, 0x00	; 0
    1b92:	02 2e       	mov	r0, r18
    1b94:	02 c0       	rjmp	.+4      	; 0x1b9a <DIO_voidSetPinDirection+0x1be>
    1b96:	88 0f       	add	r24, r24
    1b98:	99 1f       	adc	r25, r25
    1b9a:	0a 94       	dec	r0
    1b9c:	e2 f7       	brpl	.-8      	; 0x1b96 <DIO_voidSetPinDirection+0x1ba>
    1b9e:	84 2b       	or	r24, r20
    1ba0:	8c 93       	st	X, r24
    1ba2:	13 c0       	rjmp	.+38     	; 0x1bca <DIO_voidSetPinDirection+0x1ee>
		case DIO_u8PORTD : SET_BIT(DDRD , Copy_u8Pin); break;
    1ba4:	a1 e3       	ldi	r26, 0x31	; 49
    1ba6:	b0 e0       	ldi	r27, 0x00	; 0
    1ba8:	e1 e3       	ldi	r30, 0x31	; 49
    1baa:	f0 e0       	ldi	r31, 0x00	; 0
    1bac:	80 81       	ld	r24, Z
    1bae:	48 2f       	mov	r20, r24
    1bb0:	8a 81       	ldd	r24, Y+2	; 0x02
    1bb2:	28 2f       	mov	r18, r24
    1bb4:	30 e0       	ldi	r19, 0x00	; 0
    1bb6:	81 e0       	ldi	r24, 0x01	; 1
    1bb8:	90 e0       	ldi	r25, 0x00	; 0
    1bba:	02 2e       	mov	r0, r18
    1bbc:	02 c0       	rjmp	.+4      	; 0x1bc2 <DIO_voidSetPinDirection+0x1e6>
    1bbe:	88 0f       	add	r24, r24
    1bc0:	99 1f       	adc	r25, r25
    1bc2:	0a 94       	dec	r0
    1bc4:	e2 f7       	brpl	.-8      	; 0x1bbe <DIO_voidSetPinDirection+0x1e2>
    1bc6:	84 2b       	or	r24, r20
    1bc8:	8c 93       	st	X, r24
		}
	}
}
    1bca:	27 96       	adiw	r28, 0x07	; 7
    1bcc:	0f b6       	in	r0, 0x3f	; 63
    1bce:	f8 94       	cli
    1bd0:	de bf       	out	0x3e, r29	; 62
    1bd2:	0f be       	out	0x3f, r0	; 63
    1bd4:	cd bf       	out	0x3d, r28	; 61
    1bd6:	cf 91       	pop	r28
    1bd8:	df 91       	pop	r29
    1bda:	08 95       	ret

00001bdc <DIO_voidSetPinValue>:

void DIO_voidSetPinValue(u8 Copy_u8Port, u8 Copy_u8Pin, u8 Copy_u8Value)
{
    1bdc:	df 93       	push	r29
    1bde:	cf 93       	push	r28
    1be0:	cd b7       	in	r28, 0x3d	; 61
    1be2:	de b7       	in	r29, 0x3e	; 62
    1be4:	27 97       	sbiw	r28, 0x07	; 7
    1be6:	0f b6       	in	r0, 0x3f	; 63
    1be8:	f8 94       	cli
    1bea:	de bf       	out	0x3e, r29	; 62
    1bec:	0f be       	out	0x3f, r0	; 63
    1bee:	cd bf       	out	0x3d, r28	; 61
    1bf0:	89 83       	std	Y+1, r24	; 0x01
    1bf2:	6a 83       	std	Y+2, r22	; 0x02
    1bf4:	4b 83       	std	Y+3, r20	; 0x03
	if (Copy_u8Value == DIO_u8LOW)
    1bf6:	8b 81       	ldd	r24, Y+3	; 0x03
    1bf8:	88 23       	and	r24, r24
    1bfa:	09 f0       	breq	.+2      	; 0x1bfe <DIO_voidSetPinValue+0x22>
    1bfc:	74 c0       	rjmp	.+232    	; 0x1ce6 <DIO_voidSetPinValue+0x10a>
	{
		switch (Copy_u8Port)
    1bfe:	89 81       	ldd	r24, Y+1	; 0x01
    1c00:	28 2f       	mov	r18, r24
    1c02:	30 e0       	ldi	r19, 0x00	; 0
    1c04:	3f 83       	std	Y+7, r19	; 0x07
    1c06:	2e 83       	std	Y+6, r18	; 0x06
    1c08:	8e 81       	ldd	r24, Y+6	; 0x06
    1c0a:	9f 81       	ldd	r25, Y+7	; 0x07
    1c0c:	81 30       	cpi	r24, 0x01	; 1
    1c0e:	91 05       	cpc	r25, r1
    1c10:	59 f1       	breq	.+86     	; 0x1c68 <DIO_voidSetPinValue+0x8c>
    1c12:	2e 81       	ldd	r18, Y+6	; 0x06
    1c14:	3f 81       	ldd	r19, Y+7	; 0x07
    1c16:	22 30       	cpi	r18, 0x02	; 2
    1c18:	31 05       	cpc	r19, r1
    1c1a:	2c f4       	brge	.+10     	; 0x1c26 <DIO_voidSetPinValue+0x4a>
    1c1c:	8e 81       	ldd	r24, Y+6	; 0x06
    1c1e:	9f 81       	ldd	r25, Y+7	; 0x07
    1c20:	00 97       	sbiw	r24, 0x00	; 0
    1c22:	69 f0       	breq	.+26     	; 0x1c3e <DIO_voidSetPinValue+0x62>
    1c24:	d2 c0       	rjmp	.+420    	; 0x1dca <DIO_voidSetPinValue+0x1ee>
    1c26:	2e 81       	ldd	r18, Y+6	; 0x06
    1c28:	3f 81       	ldd	r19, Y+7	; 0x07
    1c2a:	22 30       	cpi	r18, 0x02	; 2
    1c2c:	31 05       	cpc	r19, r1
    1c2e:	89 f1       	breq	.+98     	; 0x1c92 <DIO_voidSetPinValue+0xb6>
    1c30:	8e 81       	ldd	r24, Y+6	; 0x06
    1c32:	9f 81       	ldd	r25, Y+7	; 0x07
    1c34:	83 30       	cpi	r24, 0x03	; 3
    1c36:	91 05       	cpc	r25, r1
    1c38:	09 f4       	brne	.+2      	; 0x1c3c <DIO_voidSetPinValue+0x60>
    1c3a:	40 c0       	rjmp	.+128    	; 0x1cbc <DIO_voidSetPinValue+0xe0>
    1c3c:	c6 c0       	rjmp	.+396    	; 0x1dca <DIO_voidSetPinValue+0x1ee>
		{
		case DIO_u8PORTA : CLR_BIT(PORTA , Copy_u8Pin); break; 
    1c3e:	ab e3       	ldi	r26, 0x3B	; 59
    1c40:	b0 e0       	ldi	r27, 0x00	; 0
    1c42:	eb e3       	ldi	r30, 0x3B	; 59
    1c44:	f0 e0       	ldi	r31, 0x00	; 0
    1c46:	80 81       	ld	r24, Z
    1c48:	48 2f       	mov	r20, r24
    1c4a:	8a 81       	ldd	r24, Y+2	; 0x02
    1c4c:	28 2f       	mov	r18, r24
    1c4e:	30 e0       	ldi	r19, 0x00	; 0
    1c50:	81 e0       	ldi	r24, 0x01	; 1
    1c52:	90 e0       	ldi	r25, 0x00	; 0
    1c54:	02 2e       	mov	r0, r18
    1c56:	02 c0       	rjmp	.+4      	; 0x1c5c <DIO_voidSetPinValue+0x80>
    1c58:	88 0f       	add	r24, r24
    1c5a:	99 1f       	adc	r25, r25
    1c5c:	0a 94       	dec	r0
    1c5e:	e2 f7       	brpl	.-8      	; 0x1c58 <DIO_voidSetPinValue+0x7c>
    1c60:	80 95       	com	r24
    1c62:	84 23       	and	r24, r20
    1c64:	8c 93       	st	X, r24
    1c66:	b1 c0       	rjmp	.+354    	; 0x1dca <DIO_voidSetPinValue+0x1ee>
		case DIO_u8PORTB : CLR_BIT(PORTB , Copy_u8Pin); break;
    1c68:	a8 e3       	ldi	r26, 0x38	; 56
    1c6a:	b0 e0       	ldi	r27, 0x00	; 0
    1c6c:	e8 e3       	ldi	r30, 0x38	; 56
    1c6e:	f0 e0       	ldi	r31, 0x00	; 0
    1c70:	80 81       	ld	r24, Z
    1c72:	48 2f       	mov	r20, r24
    1c74:	8a 81       	ldd	r24, Y+2	; 0x02
    1c76:	28 2f       	mov	r18, r24
    1c78:	30 e0       	ldi	r19, 0x00	; 0
    1c7a:	81 e0       	ldi	r24, 0x01	; 1
    1c7c:	90 e0       	ldi	r25, 0x00	; 0
    1c7e:	02 2e       	mov	r0, r18
    1c80:	02 c0       	rjmp	.+4      	; 0x1c86 <DIO_voidSetPinValue+0xaa>
    1c82:	88 0f       	add	r24, r24
    1c84:	99 1f       	adc	r25, r25
    1c86:	0a 94       	dec	r0
    1c88:	e2 f7       	brpl	.-8      	; 0x1c82 <DIO_voidSetPinValue+0xa6>
    1c8a:	80 95       	com	r24
    1c8c:	84 23       	and	r24, r20
    1c8e:	8c 93       	st	X, r24
    1c90:	9c c0       	rjmp	.+312    	; 0x1dca <DIO_voidSetPinValue+0x1ee>
		case DIO_u8PORTC : CLR_BIT(PORTC , Copy_u8Pin); break;
    1c92:	a5 e3       	ldi	r26, 0x35	; 53
    1c94:	b0 e0       	ldi	r27, 0x00	; 0
    1c96:	e5 e3       	ldi	r30, 0x35	; 53
    1c98:	f0 e0       	ldi	r31, 0x00	; 0
    1c9a:	80 81       	ld	r24, Z
    1c9c:	48 2f       	mov	r20, r24
    1c9e:	8a 81       	ldd	r24, Y+2	; 0x02
    1ca0:	28 2f       	mov	r18, r24
    1ca2:	30 e0       	ldi	r19, 0x00	; 0
    1ca4:	81 e0       	ldi	r24, 0x01	; 1
    1ca6:	90 e0       	ldi	r25, 0x00	; 0
    1ca8:	02 2e       	mov	r0, r18
    1caa:	02 c0       	rjmp	.+4      	; 0x1cb0 <DIO_voidSetPinValue+0xd4>
    1cac:	88 0f       	add	r24, r24
    1cae:	99 1f       	adc	r25, r25
    1cb0:	0a 94       	dec	r0
    1cb2:	e2 f7       	brpl	.-8      	; 0x1cac <DIO_voidSetPinValue+0xd0>
    1cb4:	80 95       	com	r24
    1cb6:	84 23       	and	r24, r20
    1cb8:	8c 93       	st	X, r24
    1cba:	87 c0       	rjmp	.+270    	; 0x1dca <DIO_voidSetPinValue+0x1ee>
		case DIO_u8PORTD : CLR_BIT(PORTD , Copy_u8Pin); break;
    1cbc:	a2 e3       	ldi	r26, 0x32	; 50
    1cbe:	b0 e0       	ldi	r27, 0x00	; 0
    1cc0:	e2 e3       	ldi	r30, 0x32	; 50
    1cc2:	f0 e0       	ldi	r31, 0x00	; 0
    1cc4:	80 81       	ld	r24, Z
    1cc6:	48 2f       	mov	r20, r24
    1cc8:	8a 81       	ldd	r24, Y+2	; 0x02
    1cca:	28 2f       	mov	r18, r24
    1ccc:	30 e0       	ldi	r19, 0x00	; 0
    1cce:	81 e0       	ldi	r24, 0x01	; 1
    1cd0:	90 e0       	ldi	r25, 0x00	; 0
    1cd2:	02 2e       	mov	r0, r18
    1cd4:	02 c0       	rjmp	.+4      	; 0x1cda <DIO_voidSetPinValue+0xfe>
    1cd6:	88 0f       	add	r24, r24
    1cd8:	99 1f       	adc	r25, r25
    1cda:	0a 94       	dec	r0
    1cdc:	e2 f7       	brpl	.-8      	; 0x1cd6 <DIO_voidSetPinValue+0xfa>
    1cde:	80 95       	com	r24
    1ce0:	84 23       	and	r24, r20
    1ce2:	8c 93       	st	X, r24
    1ce4:	72 c0       	rjmp	.+228    	; 0x1dca <DIO_voidSetPinValue+0x1ee>
		}
	}
	else if (Copy_u8Value == DIO_u8HIGH)
    1ce6:	8b 81       	ldd	r24, Y+3	; 0x03
    1ce8:	81 30       	cpi	r24, 0x01	; 1
    1cea:	09 f0       	breq	.+2      	; 0x1cee <DIO_voidSetPinValue+0x112>
    1cec:	6e c0       	rjmp	.+220    	; 0x1dca <DIO_voidSetPinValue+0x1ee>
	{				
		switch (Copy_u8Port)
    1cee:	89 81       	ldd	r24, Y+1	; 0x01
    1cf0:	28 2f       	mov	r18, r24
    1cf2:	30 e0       	ldi	r19, 0x00	; 0
    1cf4:	3d 83       	std	Y+5, r19	; 0x05
    1cf6:	2c 83       	std	Y+4, r18	; 0x04
    1cf8:	8c 81       	ldd	r24, Y+4	; 0x04
    1cfa:	9d 81       	ldd	r25, Y+5	; 0x05
    1cfc:	81 30       	cpi	r24, 0x01	; 1
    1cfe:	91 05       	cpc	r25, r1
    1d00:	49 f1       	breq	.+82     	; 0x1d54 <DIO_voidSetPinValue+0x178>
    1d02:	2c 81       	ldd	r18, Y+4	; 0x04
    1d04:	3d 81       	ldd	r19, Y+5	; 0x05
    1d06:	22 30       	cpi	r18, 0x02	; 2
    1d08:	31 05       	cpc	r19, r1
    1d0a:	2c f4       	brge	.+10     	; 0x1d16 <DIO_voidSetPinValue+0x13a>
    1d0c:	8c 81       	ldd	r24, Y+4	; 0x04
    1d0e:	9d 81       	ldd	r25, Y+5	; 0x05
    1d10:	00 97       	sbiw	r24, 0x00	; 0
    1d12:	61 f0       	breq	.+24     	; 0x1d2c <DIO_voidSetPinValue+0x150>
    1d14:	5a c0       	rjmp	.+180    	; 0x1dca <DIO_voidSetPinValue+0x1ee>
    1d16:	2c 81       	ldd	r18, Y+4	; 0x04
    1d18:	3d 81       	ldd	r19, Y+5	; 0x05
    1d1a:	22 30       	cpi	r18, 0x02	; 2
    1d1c:	31 05       	cpc	r19, r1
    1d1e:	71 f1       	breq	.+92     	; 0x1d7c <DIO_voidSetPinValue+0x1a0>
    1d20:	8c 81       	ldd	r24, Y+4	; 0x04
    1d22:	9d 81       	ldd	r25, Y+5	; 0x05
    1d24:	83 30       	cpi	r24, 0x03	; 3
    1d26:	91 05       	cpc	r25, r1
    1d28:	e9 f1       	breq	.+122    	; 0x1da4 <DIO_voidSetPinValue+0x1c8>
    1d2a:	4f c0       	rjmp	.+158    	; 0x1dca <DIO_voidSetPinValue+0x1ee>
		{
		case DIO_u8PORTA : SET_BIT(PORTA , Copy_u8Pin); break; 
    1d2c:	ab e3       	ldi	r26, 0x3B	; 59
    1d2e:	b0 e0       	ldi	r27, 0x00	; 0
    1d30:	eb e3       	ldi	r30, 0x3B	; 59
    1d32:	f0 e0       	ldi	r31, 0x00	; 0
    1d34:	80 81       	ld	r24, Z
    1d36:	48 2f       	mov	r20, r24
    1d38:	8a 81       	ldd	r24, Y+2	; 0x02
    1d3a:	28 2f       	mov	r18, r24
    1d3c:	30 e0       	ldi	r19, 0x00	; 0
    1d3e:	81 e0       	ldi	r24, 0x01	; 1
    1d40:	90 e0       	ldi	r25, 0x00	; 0
    1d42:	02 2e       	mov	r0, r18
    1d44:	02 c0       	rjmp	.+4      	; 0x1d4a <DIO_voidSetPinValue+0x16e>
    1d46:	88 0f       	add	r24, r24
    1d48:	99 1f       	adc	r25, r25
    1d4a:	0a 94       	dec	r0
    1d4c:	e2 f7       	brpl	.-8      	; 0x1d46 <DIO_voidSetPinValue+0x16a>
    1d4e:	84 2b       	or	r24, r20
    1d50:	8c 93       	st	X, r24
    1d52:	3b c0       	rjmp	.+118    	; 0x1dca <DIO_voidSetPinValue+0x1ee>
		case DIO_u8PORTB : SET_BIT(PORTB , Copy_u8Pin); break;
    1d54:	a8 e3       	ldi	r26, 0x38	; 56
    1d56:	b0 e0       	ldi	r27, 0x00	; 0
    1d58:	e8 e3       	ldi	r30, 0x38	; 56
    1d5a:	f0 e0       	ldi	r31, 0x00	; 0
    1d5c:	80 81       	ld	r24, Z
    1d5e:	48 2f       	mov	r20, r24
    1d60:	8a 81       	ldd	r24, Y+2	; 0x02
    1d62:	28 2f       	mov	r18, r24
    1d64:	30 e0       	ldi	r19, 0x00	; 0
    1d66:	81 e0       	ldi	r24, 0x01	; 1
    1d68:	90 e0       	ldi	r25, 0x00	; 0
    1d6a:	02 2e       	mov	r0, r18
    1d6c:	02 c0       	rjmp	.+4      	; 0x1d72 <DIO_voidSetPinValue+0x196>
    1d6e:	88 0f       	add	r24, r24
    1d70:	99 1f       	adc	r25, r25
    1d72:	0a 94       	dec	r0
    1d74:	e2 f7       	brpl	.-8      	; 0x1d6e <DIO_voidSetPinValue+0x192>
    1d76:	84 2b       	or	r24, r20
    1d78:	8c 93       	st	X, r24
    1d7a:	27 c0       	rjmp	.+78     	; 0x1dca <DIO_voidSetPinValue+0x1ee>
		case DIO_u8PORTC : SET_BIT(PORTC , Copy_u8Pin); break;
    1d7c:	a5 e3       	ldi	r26, 0x35	; 53
    1d7e:	b0 e0       	ldi	r27, 0x00	; 0
    1d80:	e5 e3       	ldi	r30, 0x35	; 53
    1d82:	f0 e0       	ldi	r31, 0x00	; 0
    1d84:	80 81       	ld	r24, Z
    1d86:	48 2f       	mov	r20, r24
    1d88:	8a 81       	ldd	r24, Y+2	; 0x02
    1d8a:	28 2f       	mov	r18, r24
    1d8c:	30 e0       	ldi	r19, 0x00	; 0
    1d8e:	81 e0       	ldi	r24, 0x01	; 1
    1d90:	90 e0       	ldi	r25, 0x00	; 0
    1d92:	02 2e       	mov	r0, r18
    1d94:	02 c0       	rjmp	.+4      	; 0x1d9a <DIO_voidSetPinValue+0x1be>
    1d96:	88 0f       	add	r24, r24
    1d98:	99 1f       	adc	r25, r25
    1d9a:	0a 94       	dec	r0
    1d9c:	e2 f7       	brpl	.-8      	; 0x1d96 <DIO_voidSetPinValue+0x1ba>
    1d9e:	84 2b       	or	r24, r20
    1da0:	8c 93       	st	X, r24
    1da2:	13 c0       	rjmp	.+38     	; 0x1dca <DIO_voidSetPinValue+0x1ee>
		case DIO_u8PORTD : SET_BIT(PORTD , Copy_u8Pin); break;
    1da4:	a2 e3       	ldi	r26, 0x32	; 50
    1da6:	b0 e0       	ldi	r27, 0x00	; 0
    1da8:	e2 e3       	ldi	r30, 0x32	; 50
    1daa:	f0 e0       	ldi	r31, 0x00	; 0
    1dac:	80 81       	ld	r24, Z
    1dae:	48 2f       	mov	r20, r24
    1db0:	8a 81       	ldd	r24, Y+2	; 0x02
    1db2:	28 2f       	mov	r18, r24
    1db4:	30 e0       	ldi	r19, 0x00	; 0
    1db6:	81 e0       	ldi	r24, 0x01	; 1
    1db8:	90 e0       	ldi	r25, 0x00	; 0
    1dba:	02 2e       	mov	r0, r18
    1dbc:	02 c0       	rjmp	.+4      	; 0x1dc2 <DIO_voidSetPinValue+0x1e6>
    1dbe:	88 0f       	add	r24, r24
    1dc0:	99 1f       	adc	r25, r25
    1dc2:	0a 94       	dec	r0
    1dc4:	e2 f7       	brpl	.-8      	; 0x1dbe <DIO_voidSetPinValue+0x1e2>
    1dc6:	84 2b       	or	r24, r20
    1dc8:	8c 93       	st	X, r24
		}
	}	
}
    1dca:	27 96       	adiw	r28, 0x07	; 7
    1dcc:	0f b6       	in	r0, 0x3f	; 63
    1dce:	f8 94       	cli
    1dd0:	de bf       	out	0x3e, r29	; 62
    1dd2:	0f be       	out	0x3f, r0	; 63
    1dd4:	cd bf       	out	0x3d, r28	; 61
    1dd6:	cf 91       	pop	r28
    1dd8:	df 91       	pop	r29
    1dda:	08 95       	ret

00001ddc <DIO_u8GetPinValue>:

u8 	 DIO_u8GetPinValue(u8 Copy_u8Port, u8 Copy_u8Pin)
{
    1ddc:	df 93       	push	r29
    1dde:	cf 93       	push	r28
    1de0:	00 d0       	rcall	.+0      	; 0x1de2 <DIO_u8GetPinValue+0x6>
    1de2:	00 d0       	rcall	.+0      	; 0x1de4 <DIO_u8GetPinValue+0x8>
    1de4:	0f 92       	push	r0
    1de6:	cd b7       	in	r28, 0x3d	; 61
    1de8:	de b7       	in	r29, 0x3e	; 62
    1dea:	8a 83       	std	Y+2, r24	; 0x02
    1dec:	6b 83       	std	Y+3, r22	; 0x03
	u8 pin_value=0;
    1dee:	19 82       	std	Y+1, r1	; 0x01
	switch (Copy_u8Port)
    1df0:	8a 81       	ldd	r24, Y+2	; 0x02
    1df2:	28 2f       	mov	r18, r24
    1df4:	30 e0       	ldi	r19, 0x00	; 0
    1df6:	3d 83       	std	Y+5, r19	; 0x05
    1df8:	2c 83       	std	Y+4, r18	; 0x04
    1dfa:	4c 81       	ldd	r20, Y+4	; 0x04
    1dfc:	5d 81       	ldd	r21, Y+5	; 0x05
    1dfe:	41 30       	cpi	r20, 0x01	; 1
    1e00:	51 05       	cpc	r21, r1
    1e02:	41 f1       	breq	.+80     	; 0x1e54 <DIO_u8GetPinValue+0x78>
    1e04:	8c 81       	ldd	r24, Y+4	; 0x04
    1e06:	9d 81       	ldd	r25, Y+5	; 0x05
    1e08:	82 30       	cpi	r24, 0x02	; 2
    1e0a:	91 05       	cpc	r25, r1
    1e0c:	34 f4       	brge	.+12     	; 0x1e1a <DIO_u8GetPinValue+0x3e>
    1e0e:	2c 81       	ldd	r18, Y+4	; 0x04
    1e10:	3d 81       	ldd	r19, Y+5	; 0x05
    1e12:	21 15       	cp	r18, r1
    1e14:	31 05       	cpc	r19, r1
    1e16:	61 f0       	breq	.+24     	; 0x1e30 <DIO_u8GetPinValue+0x54>
    1e18:	52 c0       	rjmp	.+164    	; 0x1ebe <DIO_u8GetPinValue+0xe2>
    1e1a:	4c 81       	ldd	r20, Y+4	; 0x04
    1e1c:	5d 81       	ldd	r21, Y+5	; 0x05
    1e1e:	42 30       	cpi	r20, 0x02	; 2
    1e20:	51 05       	cpc	r21, r1
    1e22:	51 f1       	breq	.+84     	; 0x1e78 <DIO_u8GetPinValue+0x9c>
    1e24:	8c 81       	ldd	r24, Y+4	; 0x04
    1e26:	9d 81       	ldd	r25, Y+5	; 0x05
    1e28:	83 30       	cpi	r24, 0x03	; 3
    1e2a:	91 05       	cpc	r25, r1
    1e2c:	b9 f1       	breq	.+110    	; 0x1e9c <DIO_u8GetPinValue+0xc0>
    1e2e:	47 c0       	rjmp	.+142    	; 0x1ebe <DIO_u8GetPinValue+0xe2>
	{
	case DIO_u8PORTA : pin_value = GET_BIT(PINA , Copy_u8Pin); break;
    1e30:	e9 e3       	ldi	r30, 0x39	; 57
    1e32:	f0 e0       	ldi	r31, 0x00	; 0
    1e34:	80 81       	ld	r24, Z
    1e36:	28 2f       	mov	r18, r24
    1e38:	30 e0       	ldi	r19, 0x00	; 0
    1e3a:	8b 81       	ldd	r24, Y+3	; 0x03
    1e3c:	88 2f       	mov	r24, r24
    1e3e:	90 e0       	ldi	r25, 0x00	; 0
    1e40:	a9 01       	movw	r20, r18
    1e42:	02 c0       	rjmp	.+4      	; 0x1e48 <DIO_u8GetPinValue+0x6c>
    1e44:	55 95       	asr	r21
    1e46:	47 95       	ror	r20
    1e48:	8a 95       	dec	r24
    1e4a:	e2 f7       	brpl	.-8      	; 0x1e44 <DIO_u8GetPinValue+0x68>
    1e4c:	ca 01       	movw	r24, r20
    1e4e:	81 70       	andi	r24, 0x01	; 1
    1e50:	89 83       	std	Y+1, r24	; 0x01
    1e52:	35 c0       	rjmp	.+106    	; 0x1ebe <DIO_u8GetPinValue+0xe2>
	case DIO_u8PORTB : pin_value = GET_BIT(PINB , Copy_u8Pin); break;
    1e54:	e6 e3       	ldi	r30, 0x36	; 54
    1e56:	f0 e0       	ldi	r31, 0x00	; 0
    1e58:	80 81       	ld	r24, Z
    1e5a:	28 2f       	mov	r18, r24
    1e5c:	30 e0       	ldi	r19, 0x00	; 0
    1e5e:	8b 81       	ldd	r24, Y+3	; 0x03
    1e60:	88 2f       	mov	r24, r24
    1e62:	90 e0       	ldi	r25, 0x00	; 0
    1e64:	a9 01       	movw	r20, r18
    1e66:	02 c0       	rjmp	.+4      	; 0x1e6c <DIO_u8GetPinValue+0x90>
    1e68:	55 95       	asr	r21
    1e6a:	47 95       	ror	r20
    1e6c:	8a 95       	dec	r24
    1e6e:	e2 f7       	brpl	.-8      	; 0x1e68 <DIO_u8GetPinValue+0x8c>
    1e70:	ca 01       	movw	r24, r20
    1e72:	81 70       	andi	r24, 0x01	; 1
    1e74:	89 83       	std	Y+1, r24	; 0x01
    1e76:	23 c0       	rjmp	.+70     	; 0x1ebe <DIO_u8GetPinValue+0xe2>
	case DIO_u8PORTC : pin_value = GET_BIT(PINC , Copy_u8Pin); break;
    1e78:	e3 e3       	ldi	r30, 0x33	; 51
    1e7a:	f0 e0       	ldi	r31, 0x00	; 0
    1e7c:	80 81       	ld	r24, Z
    1e7e:	28 2f       	mov	r18, r24
    1e80:	30 e0       	ldi	r19, 0x00	; 0
    1e82:	8b 81       	ldd	r24, Y+3	; 0x03
    1e84:	88 2f       	mov	r24, r24
    1e86:	90 e0       	ldi	r25, 0x00	; 0
    1e88:	a9 01       	movw	r20, r18
    1e8a:	02 c0       	rjmp	.+4      	; 0x1e90 <DIO_u8GetPinValue+0xb4>
    1e8c:	55 95       	asr	r21
    1e8e:	47 95       	ror	r20
    1e90:	8a 95       	dec	r24
    1e92:	e2 f7       	brpl	.-8      	; 0x1e8c <DIO_u8GetPinValue+0xb0>
    1e94:	ca 01       	movw	r24, r20
    1e96:	81 70       	andi	r24, 0x01	; 1
    1e98:	89 83       	std	Y+1, r24	; 0x01
    1e9a:	11 c0       	rjmp	.+34     	; 0x1ebe <DIO_u8GetPinValue+0xe2>
	case DIO_u8PORTD : pin_value = GET_BIT(PIND , Copy_u8Pin); break;
    1e9c:	e0 e3       	ldi	r30, 0x30	; 48
    1e9e:	f0 e0       	ldi	r31, 0x00	; 0
    1ea0:	80 81       	ld	r24, Z
    1ea2:	28 2f       	mov	r18, r24
    1ea4:	30 e0       	ldi	r19, 0x00	; 0
    1ea6:	8b 81       	ldd	r24, Y+3	; 0x03
    1ea8:	88 2f       	mov	r24, r24
    1eaa:	90 e0       	ldi	r25, 0x00	; 0
    1eac:	a9 01       	movw	r20, r18
    1eae:	02 c0       	rjmp	.+4      	; 0x1eb4 <DIO_u8GetPinValue+0xd8>
    1eb0:	55 95       	asr	r21
    1eb2:	47 95       	ror	r20
    1eb4:	8a 95       	dec	r24
    1eb6:	e2 f7       	brpl	.-8      	; 0x1eb0 <DIO_u8GetPinValue+0xd4>
    1eb8:	ca 01       	movw	r24, r20
    1eba:	81 70       	andi	r24, 0x01	; 1
    1ebc:	89 83       	std	Y+1, r24	; 0x01
	}
	return pin_value;
    1ebe:	89 81       	ldd	r24, Y+1	; 0x01
}
    1ec0:	0f 90       	pop	r0
    1ec2:	0f 90       	pop	r0
    1ec4:	0f 90       	pop	r0
    1ec6:	0f 90       	pop	r0
    1ec8:	0f 90       	pop	r0
    1eca:	cf 91       	pop	r28
    1ecc:	df 91       	pop	r29
    1ece:	08 95       	ret

00001ed0 <DIO_voidSetPortDirection>:

void DIO_voidSetPortDirection(u8 Copy_u8Port, u8 Copy_u8Direction)
{
    1ed0:	df 93       	push	r29
    1ed2:	cf 93       	push	r28
    1ed4:	00 d0       	rcall	.+0      	; 0x1ed6 <DIO_voidSetPortDirection+0x6>
    1ed6:	00 d0       	rcall	.+0      	; 0x1ed8 <DIO_voidSetPortDirection+0x8>
    1ed8:	cd b7       	in	r28, 0x3d	; 61
    1eda:	de b7       	in	r29, 0x3e	; 62
    1edc:	89 83       	std	Y+1, r24	; 0x01
    1ede:	6a 83       	std	Y+2, r22	; 0x02
	switch(Copy_u8Port)
    1ee0:	89 81       	ldd	r24, Y+1	; 0x01
    1ee2:	28 2f       	mov	r18, r24
    1ee4:	30 e0       	ldi	r19, 0x00	; 0
    1ee6:	3c 83       	std	Y+4, r19	; 0x04
    1ee8:	2b 83       	std	Y+3, r18	; 0x03
    1eea:	8b 81       	ldd	r24, Y+3	; 0x03
    1eec:	9c 81       	ldd	r25, Y+4	; 0x04
    1eee:	81 30       	cpi	r24, 0x01	; 1
    1ef0:	91 05       	cpc	r25, r1
    1ef2:	d1 f0       	breq	.+52     	; 0x1f28 <DIO_voidSetPortDirection+0x58>
    1ef4:	2b 81       	ldd	r18, Y+3	; 0x03
    1ef6:	3c 81       	ldd	r19, Y+4	; 0x04
    1ef8:	22 30       	cpi	r18, 0x02	; 2
    1efa:	31 05       	cpc	r19, r1
    1efc:	2c f4       	brge	.+10     	; 0x1f08 <DIO_voidSetPortDirection+0x38>
    1efe:	8b 81       	ldd	r24, Y+3	; 0x03
    1f00:	9c 81       	ldd	r25, Y+4	; 0x04
    1f02:	00 97       	sbiw	r24, 0x00	; 0
    1f04:	61 f0       	breq	.+24     	; 0x1f1e <DIO_voidSetPortDirection+0x4e>
    1f06:	1e c0       	rjmp	.+60     	; 0x1f44 <DIO_voidSetPortDirection+0x74>
    1f08:	2b 81       	ldd	r18, Y+3	; 0x03
    1f0a:	3c 81       	ldd	r19, Y+4	; 0x04
    1f0c:	22 30       	cpi	r18, 0x02	; 2
    1f0e:	31 05       	cpc	r19, r1
    1f10:	81 f0       	breq	.+32     	; 0x1f32 <DIO_voidSetPortDirection+0x62>
    1f12:	8b 81       	ldd	r24, Y+3	; 0x03
    1f14:	9c 81       	ldd	r25, Y+4	; 0x04
    1f16:	83 30       	cpi	r24, 0x03	; 3
    1f18:	91 05       	cpc	r25, r1
    1f1a:	81 f0       	breq	.+32     	; 0x1f3c <DIO_voidSetPortDirection+0x6c>
    1f1c:	13 c0       	rjmp	.+38     	; 0x1f44 <DIO_voidSetPortDirection+0x74>
	{
	case DIO_u8PORTA : DDRA = Copy_u8Direction; break;
    1f1e:	ea e3       	ldi	r30, 0x3A	; 58
    1f20:	f0 e0       	ldi	r31, 0x00	; 0
    1f22:	8a 81       	ldd	r24, Y+2	; 0x02
    1f24:	80 83       	st	Z, r24
    1f26:	0e c0       	rjmp	.+28     	; 0x1f44 <DIO_voidSetPortDirection+0x74>
	case DIO_u8PORTB : DDRB = Copy_u8Direction; break;
    1f28:	e7 e3       	ldi	r30, 0x37	; 55
    1f2a:	f0 e0       	ldi	r31, 0x00	; 0
    1f2c:	8a 81       	ldd	r24, Y+2	; 0x02
    1f2e:	80 83       	st	Z, r24
    1f30:	09 c0       	rjmp	.+18     	; 0x1f44 <DIO_voidSetPortDirection+0x74>
	case DIO_u8PORTC : DDRC = Copy_u8Direction; break;
    1f32:	e4 e3       	ldi	r30, 0x34	; 52
    1f34:	f0 e0       	ldi	r31, 0x00	; 0
    1f36:	8a 81       	ldd	r24, Y+2	; 0x02
    1f38:	80 83       	st	Z, r24
    1f3a:	04 c0       	rjmp	.+8      	; 0x1f44 <DIO_voidSetPortDirection+0x74>
	case DIO_u8PORTD : DDRD = Copy_u8Direction; break;
    1f3c:	e1 e3       	ldi	r30, 0x31	; 49
    1f3e:	f0 e0       	ldi	r31, 0x00	; 0
    1f40:	8a 81       	ldd	r24, Y+2	; 0x02
    1f42:	80 83       	st	Z, r24
	}
}
    1f44:	0f 90       	pop	r0
    1f46:	0f 90       	pop	r0
    1f48:	0f 90       	pop	r0
    1f4a:	0f 90       	pop	r0
    1f4c:	cf 91       	pop	r28
    1f4e:	df 91       	pop	r29
    1f50:	08 95       	ret

00001f52 <DIO_voidSetPortValue>:

void DIO_voidSetPortValue(u8 Copy_u8Port, u8 Copy_u8Value)
{
    1f52:	df 93       	push	r29
    1f54:	cf 93       	push	r28
    1f56:	00 d0       	rcall	.+0      	; 0x1f58 <DIO_voidSetPortValue+0x6>
    1f58:	00 d0       	rcall	.+0      	; 0x1f5a <DIO_voidSetPortValue+0x8>
    1f5a:	cd b7       	in	r28, 0x3d	; 61
    1f5c:	de b7       	in	r29, 0x3e	; 62
    1f5e:	89 83       	std	Y+1, r24	; 0x01
    1f60:	6a 83       	std	Y+2, r22	; 0x02
	switch(Copy_u8Port)
    1f62:	89 81       	ldd	r24, Y+1	; 0x01
    1f64:	28 2f       	mov	r18, r24
    1f66:	30 e0       	ldi	r19, 0x00	; 0
    1f68:	3c 83       	std	Y+4, r19	; 0x04
    1f6a:	2b 83       	std	Y+3, r18	; 0x03
    1f6c:	8b 81       	ldd	r24, Y+3	; 0x03
    1f6e:	9c 81       	ldd	r25, Y+4	; 0x04
    1f70:	81 30       	cpi	r24, 0x01	; 1
    1f72:	91 05       	cpc	r25, r1
    1f74:	d1 f0       	breq	.+52     	; 0x1faa <DIO_voidSetPortValue+0x58>
    1f76:	2b 81       	ldd	r18, Y+3	; 0x03
    1f78:	3c 81       	ldd	r19, Y+4	; 0x04
    1f7a:	22 30       	cpi	r18, 0x02	; 2
    1f7c:	31 05       	cpc	r19, r1
    1f7e:	2c f4       	brge	.+10     	; 0x1f8a <DIO_voidSetPortValue+0x38>
    1f80:	8b 81       	ldd	r24, Y+3	; 0x03
    1f82:	9c 81       	ldd	r25, Y+4	; 0x04
    1f84:	00 97       	sbiw	r24, 0x00	; 0
    1f86:	61 f0       	breq	.+24     	; 0x1fa0 <DIO_voidSetPortValue+0x4e>
    1f88:	1e c0       	rjmp	.+60     	; 0x1fc6 <DIO_voidSetPortValue+0x74>
    1f8a:	2b 81       	ldd	r18, Y+3	; 0x03
    1f8c:	3c 81       	ldd	r19, Y+4	; 0x04
    1f8e:	22 30       	cpi	r18, 0x02	; 2
    1f90:	31 05       	cpc	r19, r1
    1f92:	81 f0       	breq	.+32     	; 0x1fb4 <DIO_voidSetPortValue+0x62>
    1f94:	8b 81       	ldd	r24, Y+3	; 0x03
    1f96:	9c 81       	ldd	r25, Y+4	; 0x04
    1f98:	83 30       	cpi	r24, 0x03	; 3
    1f9a:	91 05       	cpc	r25, r1
    1f9c:	81 f0       	breq	.+32     	; 0x1fbe <DIO_voidSetPortValue+0x6c>
    1f9e:	13 c0       	rjmp	.+38     	; 0x1fc6 <DIO_voidSetPortValue+0x74>
	{
	case DIO_u8PORTA : PORTA = Copy_u8Value; break;
    1fa0:	eb e3       	ldi	r30, 0x3B	; 59
    1fa2:	f0 e0       	ldi	r31, 0x00	; 0
    1fa4:	8a 81       	ldd	r24, Y+2	; 0x02
    1fa6:	80 83       	st	Z, r24
    1fa8:	0e c0       	rjmp	.+28     	; 0x1fc6 <DIO_voidSetPortValue+0x74>
	case DIO_u8PORTB : PORTB = Copy_u8Value; break;
    1faa:	e8 e3       	ldi	r30, 0x38	; 56
    1fac:	f0 e0       	ldi	r31, 0x00	; 0
    1fae:	8a 81       	ldd	r24, Y+2	; 0x02
    1fb0:	80 83       	st	Z, r24
    1fb2:	09 c0       	rjmp	.+18     	; 0x1fc6 <DIO_voidSetPortValue+0x74>
	case DIO_u8PORTC : PORTC = Copy_u8Value; break;
    1fb4:	e5 e3       	ldi	r30, 0x35	; 53
    1fb6:	f0 e0       	ldi	r31, 0x00	; 0
    1fb8:	8a 81       	ldd	r24, Y+2	; 0x02
    1fba:	80 83       	st	Z, r24
    1fbc:	04 c0       	rjmp	.+8      	; 0x1fc6 <DIO_voidSetPortValue+0x74>
	case DIO_u8PORTD : PORTD = Copy_u8Value; break;
    1fbe:	e2 e3       	ldi	r30, 0x32	; 50
    1fc0:	f0 e0       	ldi	r31, 0x00	; 0
    1fc2:	8a 81       	ldd	r24, Y+2	; 0x02
    1fc4:	80 83       	st	Z, r24
	}
}
    1fc6:	0f 90       	pop	r0
    1fc8:	0f 90       	pop	r0
    1fca:	0f 90       	pop	r0
    1fcc:	0f 90       	pop	r0
    1fce:	cf 91       	pop	r28
    1fd0:	df 91       	pop	r29
    1fd2:	08 95       	ret

00001fd4 <DIO_u8GetPortValue>:

u8 	 DIO_u8GetPortValue(u8 Copy_u8Port)
{
    1fd4:	df 93       	push	r29
    1fd6:	cf 93       	push	r28
    1fd8:	00 d0       	rcall	.+0      	; 0x1fda <DIO_u8GetPortValue+0x6>
    1fda:	00 d0       	rcall	.+0      	; 0x1fdc <DIO_u8GetPortValue+0x8>
    1fdc:	cd b7       	in	r28, 0x3d	; 61
    1fde:	de b7       	in	r29, 0x3e	; 62
    1fe0:	8a 83       	std	Y+2, r24	; 0x02
	u8 port_value;
	switch(Copy_u8Port)
    1fe2:	8a 81       	ldd	r24, Y+2	; 0x02
    1fe4:	28 2f       	mov	r18, r24
    1fe6:	30 e0       	ldi	r19, 0x00	; 0
    1fe8:	3c 83       	std	Y+4, r19	; 0x04
    1fea:	2b 83       	std	Y+3, r18	; 0x03
    1fec:	8b 81       	ldd	r24, Y+3	; 0x03
    1fee:	9c 81       	ldd	r25, Y+4	; 0x04
    1ff0:	81 30       	cpi	r24, 0x01	; 1
    1ff2:	91 05       	cpc	r25, r1
    1ff4:	d1 f0       	breq	.+52     	; 0x202a <DIO_u8GetPortValue+0x56>
    1ff6:	2b 81       	ldd	r18, Y+3	; 0x03
    1ff8:	3c 81       	ldd	r19, Y+4	; 0x04
    1ffa:	22 30       	cpi	r18, 0x02	; 2
    1ffc:	31 05       	cpc	r19, r1
    1ffe:	2c f4       	brge	.+10     	; 0x200a <DIO_u8GetPortValue+0x36>
    2000:	8b 81       	ldd	r24, Y+3	; 0x03
    2002:	9c 81       	ldd	r25, Y+4	; 0x04
    2004:	00 97       	sbiw	r24, 0x00	; 0
    2006:	61 f0       	breq	.+24     	; 0x2020 <DIO_u8GetPortValue+0x4c>
    2008:	1e c0       	rjmp	.+60     	; 0x2046 <DIO_u8GetPortValue+0x72>
    200a:	2b 81       	ldd	r18, Y+3	; 0x03
    200c:	3c 81       	ldd	r19, Y+4	; 0x04
    200e:	22 30       	cpi	r18, 0x02	; 2
    2010:	31 05       	cpc	r19, r1
    2012:	81 f0       	breq	.+32     	; 0x2034 <DIO_u8GetPortValue+0x60>
    2014:	8b 81       	ldd	r24, Y+3	; 0x03
    2016:	9c 81       	ldd	r25, Y+4	; 0x04
    2018:	83 30       	cpi	r24, 0x03	; 3
    201a:	91 05       	cpc	r25, r1
    201c:	81 f0       	breq	.+32     	; 0x203e <DIO_u8GetPortValue+0x6a>
    201e:	13 c0       	rjmp	.+38     	; 0x2046 <DIO_u8GetPortValue+0x72>
	{
	case DIO_u8PORTA : port_value = PORTA; break;
    2020:	eb e3       	ldi	r30, 0x3B	; 59
    2022:	f0 e0       	ldi	r31, 0x00	; 0
    2024:	80 81       	ld	r24, Z
    2026:	89 83       	std	Y+1, r24	; 0x01
    2028:	0e c0       	rjmp	.+28     	; 0x2046 <DIO_u8GetPortValue+0x72>
	case DIO_u8PORTB : port_value = PORTB; break;
    202a:	e8 e3       	ldi	r30, 0x38	; 56
    202c:	f0 e0       	ldi	r31, 0x00	; 0
    202e:	80 81       	ld	r24, Z
    2030:	89 83       	std	Y+1, r24	; 0x01
    2032:	09 c0       	rjmp	.+18     	; 0x2046 <DIO_u8GetPortValue+0x72>
	case DIO_u8PORTC : port_value = PORTC; break;
    2034:	e5 e3       	ldi	r30, 0x35	; 53
    2036:	f0 e0       	ldi	r31, 0x00	; 0
    2038:	80 81       	ld	r24, Z
    203a:	89 83       	std	Y+1, r24	; 0x01
    203c:	04 c0       	rjmp	.+8      	; 0x2046 <DIO_u8GetPortValue+0x72>
	case DIO_u8PORTD : port_value = PORTD; break;
    203e:	e2 e3       	ldi	r30, 0x32	; 50
    2040:	f0 e0       	ldi	r31, 0x00	; 0
    2042:	80 81       	ld	r24, Z
    2044:	89 83       	std	Y+1, r24	; 0x01
	}
	return port_value;
    2046:	89 81       	ldd	r24, Y+1	; 0x01
}
    2048:	0f 90       	pop	r0
    204a:	0f 90       	pop	r0
    204c:	0f 90       	pop	r0
    204e:	0f 90       	pop	r0
    2050:	cf 91       	pop	r28
    2052:	df 91       	pop	r29
    2054:	08 95       	ret

00002056 <KPD_voidInit>:




void KPD_voidInit(void)
{
    2056:	df 93       	push	r29
    2058:	cf 93       	push	r28
    205a:	00 d0       	rcall	.+0      	; 0x205c <KPD_voidInit+0x6>
    205c:	cd b7       	in	r28, 0x3d	; 61
    205e:	de b7       	in	r29, 0x3e	; 62
	for(u8 i=0 ; i<KPD_ROWS_NUMBER ; i++)
    2060:	1a 82       	std	Y+2, r1	; 0x02
    2062:	1b c0       	rjmp	.+54     	; 0x209a <KPD_voidInit+0x44>
	{
		DIO_voidSetPinDirection(KPD_PORT , Local_au8Rows[i] , DIO_u8INPUT);
    2064:	8a 81       	ldd	r24, Y+2	; 0x02
    2066:	88 2f       	mov	r24, r24
    2068:	90 e0       	ldi	r25, 0x00	; 0
    206a:	fc 01       	movw	r30, r24
    206c:	e0 58       	subi	r30, 0x80	; 128
    206e:	fe 4f       	sbci	r31, 0xFE	; 254
    2070:	90 81       	ld	r25, Z
    2072:	80 e0       	ldi	r24, 0x00	; 0
    2074:	69 2f       	mov	r22, r25
    2076:	40 e0       	ldi	r20, 0x00	; 0
    2078:	0e 94 ee 0c 	call	0x19dc	; 0x19dc <DIO_voidSetPinDirection>
		DIO_voidSetPinValue(KPD_PORT , Local_au8Rows[i] , DIO_u8HIGH);
    207c:	8a 81       	ldd	r24, Y+2	; 0x02
    207e:	88 2f       	mov	r24, r24
    2080:	90 e0       	ldi	r25, 0x00	; 0
    2082:	fc 01       	movw	r30, r24
    2084:	e0 58       	subi	r30, 0x80	; 128
    2086:	fe 4f       	sbci	r31, 0xFE	; 254
    2088:	90 81       	ld	r25, Z
    208a:	80 e0       	ldi	r24, 0x00	; 0
    208c:	69 2f       	mov	r22, r25
    208e:	41 e0       	ldi	r20, 0x01	; 1
    2090:	0e 94 ee 0d 	call	0x1bdc	; 0x1bdc <DIO_voidSetPinValue>



void KPD_voidInit(void)
{
	for(u8 i=0 ; i<KPD_ROWS_NUMBER ; i++)
    2094:	8a 81       	ldd	r24, Y+2	; 0x02
    2096:	8f 5f       	subi	r24, 0xFF	; 255
    2098:	8a 83       	std	Y+2, r24	; 0x02
    209a:	8a 81       	ldd	r24, Y+2	; 0x02
    209c:	84 30       	cpi	r24, 0x04	; 4
    209e:	10 f3       	brcs	.-60     	; 0x2064 <KPD_voidInit+0xe>
	{
		DIO_voidSetPinDirection(KPD_PORT , Local_au8Rows[i] , DIO_u8INPUT);
		DIO_voidSetPinValue(KPD_PORT , Local_au8Rows[i] , DIO_u8HIGH);
	}
	for(u8 j=0 ; j<KPD_COLS_NUMBER ; j++)
    20a0:	19 82       	std	Y+1, r1	; 0x01
    20a2:	1b c0       	rjmp	.+54     	; 0x20da <KPD_voidInit+0x84>
	{
		DIO_voidSetPinDirection(KPD_PORT , Local_au8Cols[j] , DIO_u8OUTPUT);
    20a4:	89 81       	ldd	r24, Y+1	; 0x01
    20a6:	88 2f       	mov	r24, r24
    20a8:	90 e0       	ldi	r25, 0x00	; 0
    20aa:	fc 01       	movw	r30, r24
    20ac:	ec 57       	subi	r30, 0x7C	; 124
    20ae:	fe 4f       	sbci	r31, 0xFE	; 254
    20b0:	90 81       	ld	r25, Z
    20b2:	80 e0       	ldi	r24, 0x00	; 0
    20b4:	69 2f       	mov	r22, r25
    20b6:	41 e0       	ldi	r20, 0x01	; 1
    20b8:	0e 94 ee 0c 	call	0x19dc	; 0x19dc <DIO_voidSetPinDirection>
		DIO_voidSetPinValue(KPD_PORT , Local_au8Cols[j] , DIO_u8HIGH);
    20bc:	89 81       	ldd	r24, Y+1	; 0x01
    20be:	88 2f       	mov	r24, r24
    20c0:	90 e0       	ldi	r25, 0x00	; 0
    20c2:	fc 01       	movw	r30, r24
    20c4:	ec 57       	subi	r30, 0x7C	; 124
    20c6:	fe 4f       	sbci	r31, 0xFE	; 254
    20c8:	90 81       	ld	r25, Z
    20ca:	80 e0       	ldi	r24, 0x00	; 0
    20cc:	69 2f       	mov	r22, r25
    20ce:	41 e0       	ldi	r20, 0x01	; 1
    20d0:	0e 94 ee 0d 	call	0x1bdc	; 0x1bdc <DIO_voidSetPinValue>
	for(u8 i=0 ; i<KPD_ROWS_NUMBER ; i++)
	{
		DIO_voidSetPinDirection(KPD_PORT , Local_au8Rows[i] , DIO_u8INPUT);
		DIO_voidSetPinValue(KPD_PORT , Local_au8Rows[i] , DIO_u8HIGH);
	}
	for(u8 j=0 ; j<KPD_COLS_NUMBER ; j++)
    20d4:	89 81       	ldd	r24, Y+1	; 0x01
    20d6:	8f 5f       	subi	r24, 0xFF	; 255
    20d8:	89 83       	std	Y+1, r24	; 0x01
    20da:	89 81       	ldd	r24, Y+1	; 0x01
    20dc:	84 30       	cpi	r24, 0x04	; 4
    20de:	10 f3       	brcs	.-60     	; 0x20a4 <KPD_voidInit+0x4e>
	{
		DIO_voidSetPinDirection(KPD_PORT , Local_au8Cols[j] , DIO_u8OUTPUT);
		DIO_voidSetPinValue(KPD_PORT , Local_au8Cols[j] , DIO_u8HIGH);
	}
	DIO_voidSetPortDirection(KPD_PORT , 0x0f);
    20e0:	80 e0       	ldi	r24, 0x00	; 0
    20e2:	6f e0       	ldi	r22, 0x0F	; 15
    20e4:	0e 94 68 0f 	call	0x1ed0	; 0x1ed0 <DIO_voidSetPortDirection>
	DIO_voidSetPortValue(KPD_PORT , 0xff);
    20e8:	80 e0       	ldi	r24, 0x00	; 0
    20ea:	6f ef       	ldi	r22, 0xFF	; 255
    20ec:	0e 94 a9 0f 	call	0x1f52	; 0x1f52 <DIO_voidSetPortValue>
}
    20f0:	0f 90       	pop	r0
    20f2:	0f 90       	pop	r0
    20f4:	cf 91       	pop	r28
    20f6:	df 91       	pop	r29
    20f8:	08 95       	ret

000020fa <KPD_u8GetPressedKey>:


u8 KPD_u8GetPressedKey(void)
{
    20fa:	df 93       	push	r29
    20fc:	cf 93       	push	r28
    20fe:	cd b7       	in	r28, 0x3d	; 61
    2100:	de b7       	in	r29, 0x3e	; 62
    2102:	62 97       	sbiw	r28, 0x12	; 18
    2104:	0f b6       	in	r0, 0x3f	; 63
    2106:	f8 94       	cli
    2108:	de bf       	out	0x3e, r29	; 62
    210a:	0f be       	out	0x3f, r0	; 63
    210c:	cd bf       	out	0x3d, r28	; 61
	u8 Local_u8BreakFlag = 0;
    210e:	1a 8a       	std	Y+18, r1	; 0x12
	u8 Local_u8PressedKey= NOT_PRESSED;
    2110:	83 e6       	ldi	r24, 0x63	; 99
    2112:	89 8b       	std	Y+17, r24	; 0x11

    for (u8 col=0 ; col< KPD_COLS_NUMBER; col++)
    2114:	18 8a       	std	Y+16, r1	; 0x10
    2116:	d5 c0       	rjmp	.+426    	; 0x22c2 <KPD_u8GetPressedKey+0x1c8>
    {
        DIO_voidSetPinValue(KPD_PORT , Local_au8Cols[col] , DIO_u8LOW);
    2118:	88 89       	ldd	r24, Y+16	; 0x10
    211a:	88 2f       	mov	r24, r24
    211c:	90 e0       	ldi	r25, 0x00	; 0
    211e:	fc 01       	movw	r30, r24
    2120:	ec 57       	subi	r30, 0x7C	; 124
    2122:	fe 4f       	sbci	r31, 0xFE	; 254
    2124:	90 81       	ld	r25, Z
    2126:	80 e0       	ldi	r24, 0x00	; 0
    2128:	69 2f       	mov	r22, r25
    212a:	40 e0       	ldi	r20, 0x00	; 0
    212c:	0e 94 ee 0d 	call	0x1bdc	; 0x1bdc <DIO_voidSetPinValue>

        for (u8 row=0 ; row<KPD_ROWS_NUMBER ; row++)
    2130:	1f 86       	std	Y+15, r1	; 0x0f
    2132:	b1 c0       	rjmp	.+354    	; 0x2296 <KPD_u8GetPressedKey+0x19c>
        {
            if (DIO_u8GetPinValue(KPD_PORT , Local_au8Rows[row]) == DIO_u8LOW)
    2134:	8f 85       	ldd	r24, Y+15	; 0x0f
    2136:	88 2f       	mov	r24, r24
    2138:	90 e0       	ldi	r25, 0x00	; 0
    213a:	fc 01       	movw	r30, r24
    213c:	e0 58       	subi	r30, 0x80	; 128
    213e:	fe 4f       	sbci	r31, 0xFE	; 254
    2140:	90 81       	ld	r25, Z
    2142:	80 e0       	ldi	r24, 0x00	; 0
    2144:	69 2f       	mov	r22, r25
    2146:	0e 94 ee 0e 	call	0x1ddc	; 0x1ddc <DIO_u8GetPinValue>
    214a:	88 23       	and	r24, r24
    214c:	09 f0       	breq	.+2      	; 0x2150 <KPD_u8GetPressedKey+0x56>
    214e:	a0 c0       	rjmp	.+320    	; 0x2290 <KPD_u8GetPressedKey+0x196>
    2150:	80 e0       	ldi	r24, 0x00	; 0
    2152:	90 e0       	ldi	r25, 0x00	; 0
    2154:	a8 e4       	ldi	r26, 0x48	; 72
    2156:	b2 e4       	ldi	r27, 0x42	; 66
    2158:	8b 87       	std	Y+11, r24	; 0x0b
    215a:	9c 87       	std	Y+12, r25	; 0x0c
    215c:	ad 87       	std	Y+13, r26	; 0x0d
    215e:	be 87       	std	Y+14, r27	; 0x0e
 */
void
_delay_ms(double __ms)
{
	uint16_t __ticks;
	double __tmp = ((F_CPU) / 4e3) * __ms;
    2160:	6b 85       	ldd	r22, Y+11	; 0x0b
    2162:	7c 85       	ldd	r23, Y+12	; 0x0c
    2164:	8d 85       	ldd	r24, Y+13	; 0x0d
    2166:	9e 85       	ldd	r25, Y+14	; 0x0e
    2168:	20 e0       	ldi	r18, 0x00	; 0
    216a:	30 e0       	ldi	r19, 0x00	; 0
    216c:	4a ef       	ldi	r20, 0xFA	; 250
    216e:	54 e4       	ldi	r21, 0x44	; 68
    2170:	0e 94 1f 02 	call	0x43e	; 0x43e <__mulsf3>
    2174:	dc 01       	movw	r26, r24
    2176:	cb 01       	movw	r24, r22
    2178:	8f 83       	std	Y+7, r24	; 0x07
    217a:	98 87       	std	Y+8, r25	; 0x08
    217c:	a9 87       	std	Y+9, r26	; 0x09
    217e:	ba 87       	std	Y+10, r27	; 0x0a
	if (__tmp < 1.0)
    2180:	6f 81       	ldd	r22, Y+7	; 0x07
    2182:	78 85       	ldd	r23, Y+8	; 0x08
    2184:	89 85       	ldd	r24, Y+9	; 0x09
    2186:	9a 85       	ldd	r25, Y+10	; 0x0a
    2188:	20 e0       	ldi	r18, 0x00	; 0
    218a:	30 e0       	ldi	r19, 0x00	; 0
    218c:	40 e8       	ldi	r20, 0x80	; 128
    218e:	5f e3       	ldi	r21, 0x3F	; 63
    2190:	0e 94 79 03 	call	0x6f2	; 0x6f2 <__ltsf2>
    2194:	88 23       	and	r24, r24
    2196:	2c f4       	brge	.+10     	; 0x21a2 <KPD_u8GetPressedKey+0xa8>
		__ticks = 1;
    2198:	81 e0       	ldi	r24, 0x01	; 1
    219a:	90 e0       	ldi	r25, 0x00	; 0
    219c:	9e 83       	std	Y+6, r25	; 0x06
    219e:	8d 83       	std	Y+5, r24	; 0x05
    21a0:	3f c0       	rjmp	.+126    	; 0x2220 <KPD_u8GetPressedKey+0x126>
	else if (__tmp > 65535)
    21a2:	6f 81       	ldd	r22, Y+7	; 0x07
    21a4:	78 85       	ldd	r23, Y+8	; 0x08
    21a6:	89 85       	ldd	r24, Y+9	; 0x09
    21a8:	9a 85       	ldd	r25, Y+10	; 0x0a
    21aa:	20 e0       	ldi	r18, 0x00	; 0
    21ac:	3f ef       	ldi	r19, 0xFF	; 255
    21ae:	4f e7       	ldi	r20, 0x7F	; 127
    21b0:	57 e4       	ldi	r21, 0x47	; 71
    21b2:	0e 94 19 03 	call	0x632	; 0x632 <__gtsf2>
    21b6:	18 16       	cp	r1, r24
    21b8:	4c f5       	brge	.+82     	; 0x220c <KPD_u8GetPressedKey+0x112>
	{
		//	__ticks = requested delay in 1/10 ms
		__ticks = (uint16_t) (__ms * 10.0);
    21ba:	6b 85       	ldd	r22, Y+11	; 0x0b
    21bc:	7c 85       	ldd	r23, Y+12	; 0x0c
    21be:	8d 85       	ldd	r24, Y+13	; 0x0d
    21c0:	9e 85       	ldd	r25, Y+14	; 0x0e
    21c2:	20 e0       	ldi	r18, 0x00	; 0
    21c4:	30 e0       	ldi	r19, 0x00	; 0
    21c6:	40 e2       	ldi	r20, 0x20	; 32
    21c8:	51 e4       	ldi	r21, 0x41	; 65
    21ca:	0e 94 1f 02 	call	0x43e	; 0x43e <__mulsf3>
    21ce:	dc 01       	movw	r26, r24
    21d0:	cb 01       	movw	r24, r22
    21d2:	bc 01       	movw	r22, r24
    21d4:	cd 01       	movw	r24, r26
    21d6:	0e 94 49 00 	call	0x92	; 0x92 <__fixunssfsi>
    21da:	dc 01       	movw	r26, r24
    21dc:	cb 01       	movw	r24, r22
    21de:	9e 83       	std	Y+6, r25	; 0x06
    21e0:	8d 83       	std	Y+5, r24	; 0x05
    21e2:	0f c0       	rjmp	.+30     	; 0x2202 <KPD_u8GetPressedKey+0x108>
    21e4:	88 ec       	ldi	r24, 0xC8	; 200
    21e6:	90 e0       	ldi	r25, 0x00	; 0
    21e8:	9c 83       	std	Y+4, r25	; 0x04
    21ea:	8b 83       	std	Y+3, r24	; 0x03
    21ec:	8b 81       	ldd	r24, Y+3	; 0x03
    21ee:	9c 81       	ldd	r25, Y+4	; 0x04
    21f0:	01 97       	sbiw	r24, 0x01	; 1
    21f2:	f1 f7       	brne	.-4      	; 0x21f0 <KPD_u8GetPressedKey+0xf6>
    21f4:	9c 83       	std	Y+4, r25	; 0x04
    21f6:	8b 83       	std	Y+3, r24	; 0x03
		while(__ticks)
		{
			// wait 1/10 ms
			_delay_loop_2(((F_CPU) / 4e3) / 10);
			__ticks --;
    21f8:	8d 81       	ldd	r24, Y+5	; 0x05
    21fa:	9e 81       	ldd	r25, Y+6	; 0x06
    21fc:	01 97       	sbiw	r24, 0x01	; 1
    21fe:	9e 83       	std	Y+6, r25	; 0x06
    2200:	8d 83       	std	Y+5, r24	; 0x05
		__ticks = 1;
	else if (__tmp > 65535)
	{
		//	__ticks = requested delay in 1/10 ms
		__ticks = (uint16_t) (__ms * 10.0);
		while(__ticks)
    2202:	8d 81       	ldd	r24, Y+5	; 0x05
    2204:	9e 81       	ldd	r25, Y+6	; 0x06
    2206:	00 97       	sbiw	r24, 0x00	; 0
    2208:	69 f7       	brne	.-38     	; 0x21e4 <KPD_u8GetPressedKey+0xea>
    220a:	20 c0       	rjmp	.+64     	; 0x224c <KPD_u8GetPressedKey+0x152>
			__ticks --;
		}
		return;
	}
	else
		__ticks = (uint16_t)__tmp;
    220c:	6f 81       	ldd	r22, Y+7	; 0x07
    220e:	78 85       	ldd	r23, Y+8	; 0x08
    2210:	89 85       	ldd	r24, Y+9	; 0x09
    2212:	9a 85       	ldd	r25, Y+10	; 0x0a
    2214:	0e 94 49 00 	call	0x92	; 0x92 <__fixunssfsi>
    2218:	dc 01       	movw	r26, r24
    221a:	cb 01       	movw	r24, r22
    221c:	9e 83       	std	Y+6, r25	; 0x06
    221e:	8d 83       	std	Y+5, r24	; 0x05
    2220:	8d 81       	ldd	r24, Y+5	; 0x05
    2222:	9e 81       	ldd	r25, Y+6	; 0x06
    2224:	9a 83       	std	Y+2, r25	; 0x02
    2226:	89 83       	std	Y+1, r24	; 0x01
    2228:	89 81       	ldd	r24, Y+1	; 0x01
    222a:	9a 81       	ldd	r25, Y+2	; 0x02
    222c:	01 97       	sbiw	r24, 0x01	; 1
    222e:	f1 f7       	brne	.-4      	; 0x222c <KPD_u8GetPressedKey+0x132>
    2230:	9a 83       	std	Y+2, r25	; 0x02
    2232:	89 83       	std	Y+1, r24	; 0x01
    2234:	0b c0       	rjmp	.+22     	; 0x224c <KPD_u8GetPressedKey+0x152>
            {
            	_delay_ms(50);
            	while(DIO_u8GetPinValue(KPD_PORT , Local_au8Rows[row]) == DIO_u8LOW)
            	{
            		DIO_u8GetPinValue(KPD_PORT , Local_au8Rows[row]);
    2236:	8f 85       	ldd	r24, Y+15	; 0x0f
    2238:	88 2f       	mov	r24, r24
    223a:	90 e0       	ldi	r25, 0x00	; 0
    223c:	fc 01       	movw	r30, r24
    223e:	e0 58       	subi	r30, 0x80	; 128
    2240:	fe 4f       	sbci	r31, 0xFE	; 254
    2242:	90 81       	ld	r25, Z
    2244:	80 e0       	ldi	r24, 0x00	; 0
    2246:	69 2f       	mov	r22, r25
    2248:	0e 94 ee 0e 	call	0x1ddc	; 0x1ddc <DIO_u8GetPinValue>
        for (u8 row=0 ; row<KPD_ROWS_NUMBER ; row++)
        {
            if (DIO_u8GetPinValue(KPD_PORT , Local_au8Rows[row]) == DIO_u8LOW)
            {
            	_delay_ms(50);
            	while(DIO_u8GetPinValue(KPD_PORT , Local_au8Rows[row]) == DIO_u8LOW)
    224c:	8f 85       	ldd	r24, Y+15	; 0x0f
    224e:	88 2f       	mov	r24, r24
    2250:	90 e0       	ldi	r25, 0x00	; 0
    2252:	fc 01       	movw	r30, r24
    2254:	e0 58       	subi	r30, 0x80	; 128
    2256:	fe 4f       	sbci	r31, 0xFE	; 254
    2258:	90 81       	ld	r25, Z
    225a:	80 e0       	ldi	r24, 0x00	; 0
    225c:	69 2f       	mov	r22, r25
    225e:	0e 94 ee 0e 	call	0x1ddc	; 0x1ddc <DIO_u8GetPinValue>
    2262:	88 23       	and	r24, r24
    2264:	41 f3       	breq	.-48     	; 0x2236 <KPD_u8GetPressedKey+0x13c>
            	{
            		DIO_u8GetPinValue(KPD_PORT , Local_au8Rows[row]);
            	}
            	Local_u8PressedKey = Local_au8Shape[row][col];
    2266:	8f 85       	ldd	r24, Y+15	; 0x0f
    2268:	48 2f       	mov	r20, r24
    226a:	50 e0       	ldi	r21, 0x00	; 0
    226c:	88 89       	ldd	r24, Y+16	; 0x10
    226e:	28 2f       	mov	r18, r24
    2270:	30 e0       	ldi	r19, 0x00	; 0
    2272:	ca 01       	movw	r24, r20
    2274:	88 0f       	add	r24, r24
    2276:	99 1f       	adc	r25, r25
    2278:	88 0f       	add	r24, r24
    227a:	99 1f       	adc	r25, r25
    227c:	82 0f       	add	r24, r18
    227e:	93 1f       	adc	r25, r19
    2280:	fc 01       	movw	r30, r24
    2282:	e0 59       	subi	r30, 0x90	; 144
    2284:	fe 4f       	sbci	r31, 0xFE	; 254
    2286:	80 81       	ld	r24, Z
    2288:	89 8b       	std	Y+17, r24	; 0x11
            	Local_u8BreakFlag = 1;
    228a:	81 e0       	ldi	r24, 0x01	; 1
    228c:	8a 8b       	std	Y+18, r24	; 0x12
    228e:	07 c0       	rjmp	.+14     	; 0x229e <KPD_u8GetPressedKey+0x1a4>

    for (u8 col=0 ; col< KPD_COLS_NUMBER; col++)
    {
        DIO_voidSetPinValue(KPD_PORT , Local_au8Cols[col] , DIO_u8LOW);

        for (u8 row=0 ; row<KPD_ROWS_NUMBER ; row++)
    2290:	8f 85       	ldd	r24, Y+15	; 0x0f
    2292:	8f 5f       	subi	r24, 0xFF	; 255
    2294:	8f 87       	std	Y+15, r24	; 0x0f
    2296:	8f 85       	ldd	r24, Y+15	; 0x0f
    2298:	84 30       	cpi	r24, 0x04	; 4
    229a:	08 f4       	brcc	.+2      	; 0x229e <KPD_u8GetPressedKey+0x1a4>
    229c:	4b cf       	rjmp	.-362    	; 0x2134 <KPD_u8GetPressedKey+0x3a>
            	Local_u8PressedKey = Local_au8Shape[row][col];
            	Local_u8BreakFlag = 1;
            	break;
            }
        }
        DIO_voidSetPinValue(KPD_PORT,Local_au8Cols[col],DIO_u8HIGH);
    229e:	88 89       	ldd	r24, Y+16	; 0x10
    22a0:	88 2f       	mov	r24, r24
    22a2:	90 e0       	ldi	r25, 0x00	; 0
    22a4:	fc 01       	movw	r30, r24
    22a6:	ec 57       	subi	r30, 0x7C	; 124
    22a8:	fe 4f       	sbci	r31, 0xFE	; 254
    22aa:	90 81       	ld	r25, Z
    22ac:	80 e0       	ldi	r24, 0x00	; 0
    22ae:	69 2f       	mov	r22, r25
    22b0:	41 e0       	ldi	r20, 0x01	; 1
    22b2:	0e 94 ee 0d 	call	0x1bdc	; 0x1bdc <DIO_voidSetPinValue>
        if(Local_u8BreakFlag) break;
    22b6:	8a 89       	ldd	r24, Y+18	; 0x12
    22b8:	88 23       	and	r24, r24
    22ba:	39 f4       	brne	.+14     	; 0x22ca <KPD_u8GetPressedKey+0x1d0>
u8 KPD_u8GetPressedKey(void)
{
	u8 Local_u8BreakFlag = 0;
	u8 Local_u8PressedKey= NOT_PRESSED;

    for (u8 col=0 ; col< KPD_COLS_NUMBER; col++)
    22bc:	88 89       	ldd	r24, Y+16	; 0x10
    22be:	8f 5f       	subi	r24, 0xFF	; 255
    22c0:	88 8b       	std	Y+16, r24	; 0x10
    22c2:	88 89       	ldd	r24, Y+16	; 0x10
    22c4:	84 30       	cpi	r24, 0x04	; 4
    22c6:	08 f4       	brcc	.+2      	; 0x22ca <KPD_u8GetPressedKey+0x1d0>
    22c8:	27 cf       	rjmp	.-434    	; 0x2118 <KPD_u8GetPressedKey+0x1e>
            }
        }
        DIO_voidSetPinValue(KPD_PORT,Local_au8Cols[col],DIO_u8HIGH);
        if(Local_u8BreakFlag) break;
    }
    return Local_u8PressedKey;
    22ca:	89 89       	ldd	r24, Y+17	; 0x11
}
    22cc:	62 96       	adiw	r28, 0x12	; 18
    22ce:	0f b6       	in	r0, 0x3f	; 63
    22d0:	f8 94       	cli
    22d2:	de bf       	out	0x3e, r29	; 62
    22d4:	0f be       	out	0x3f, r0	; 63
    22d6:	cd bf       	out	0x3d, r28	; 61
    22d8:	cf 91       	pop	r28
    22da:	df 91       	pop	r29
    22dc:	08 95       	ret

000022de <KPD_u8GetPressedKey3x3>:

//KPD Assignment
u8 KPD_u8GetPressedKey3x3(void)
{
    22de:	df 93       	push	r29
    22e0:	cf 93       	push	r28
    22e2:	cd b7       	in	r28, 0x3d	; 61
    22e4:	de b7       	in	r29, 0x3e	; 62
    22e6:	6f 97       	sbiw	r28, 0x1f	; 31
    22e8:	0f b6       	in	r0, 0x3f	; 63
    22ea:	f8 94       	cli
    22ec:	de bf       	out	0x3e, r29	; 62
    22ee:	0f be       	out	0x3f, r0	; 63
    22f0:	cd bf       	out	0x3d, r28	; 61
	u8 Local_u8PressedKey = NOT_PRESSED;
    22f2:	83 e6       	ldi	r24, 0x63	; 99
    22f4:	89 8b       	std	Y+17, r24	; 0x11
	u8 Local_KeyArr[3][3]={
							{3,2,1},
							{9,8,7},
							{6,5,4},
						   };
    22f6:	ce 01       	movw	r24, r28
    22f8:	42 96       	adiw	r24, 0x12	; 18
    22fa:	9c 8f       	std	Y+28, r25	; 0x1c
    22fc:	8b 8f       	std	Y+27, r24	; 0x1b
    22fe:	e8 e8       	ldi	r30, 0x88	; 136
    2300:	f1 e0       	ldi	r31, 0x01	; 1
    2302:	fe 8f       	std	Y+30, r31	; 0x1e
    2304:	ed 8f       	std	Y+29, r30	; 0x1d
    2306:	f9 e0       	ldi	r31, 0x09	; 9
    2308:	ff 8f       	std	Y+31, r31	; 0x1f
    230a:	ed 8d       	ldd	r30, Y+29	; 0x1d
    230c:	fe 8d       	ldd	r31, Y+30	; 0x1e
    230e:	00 80       	ld	r0, Z
    2310:	8d 8d       	ldd	r24, Y+29	; 0x1d
    2312:	9e 8d       	ldd	r25, Y+30	; 0x1e
    2314:	01 96       	adiw	r24, 0x01	; 1
    2316:	9e 8f       	std	Y+30, r25	; 0x1e
    2318:	8d 8f       	std	Y+29, r24	; 0x1d
    231a:	eb 8d       	ldd	r30, Y+27	; 0x1b
    231c:	fc 8d       	ldd	r31, Y+28	; 0x1c
    231e:	00 82       	st	Z, r0
    2320:	8b 8d       	ldd	r24, Y+27	; 0x1b
    2322:	9c 8d       	ldd	r25, Y+28	; 0x1c
    2324:	01 96       	adiw	r24, 0x01	; 1
    2326:	9c 8f       	std	Y+28, r25	; 0x1c
    2328:	8b 8f       	std	Y+27, r24	; 0x1b
    232a:	9f 8d       	ldd	r25, Y+31	; 0x1f
    232c:	91 50       	subi	r25, 0x01	; 1
    232e:	9f 8f       	std	Y+31, r25	; 0x1f
    2330:	ef 8d       	ldd	r30, Y+31	; 0x1f
    2332:	ee 23       	and	r30, r30
    2334:	51 f7       	brne	.-44     	; 0x230a <KPD_u8GetPressedKey3x3+0x2c>
	for(u8 col=0 ; col<3 ; col++)
    2336:	18 8a       	std	Y+16, r1	; 0x10
    2338:	b3 c0       	rjmp	.+358    	; 0x24a0 <KPD_u8GetPressedKey3x3+0x1c2>
	{
		DIO_voidSetPinValue(KPD_PORT , col , DIO_u8LOW);
    233a:	80 e0       	ldi	r24, 0x00	; 0
    233c:	68 89       	ldd	r22, Y+16	; 0x10
    233e:	40 e0       	ldi	r20, 0x00	; 0
    2340:	0e 94 ee 0d 	call	0x1bdc	; 0x1bdc <DIO_voidSetPinValue>

		for(u8 row=0 ; row<3 ; row++)
    2344:	1f 86       	std	Y+15, r1	; 0x0f
    2346:	a0 c0       	rjmp	.+320    	; 0x2488 <KPD_u8GetPressedKey3x3+0x1aa>
		{
			if(DIO_u8GetPinValue(KPD_PORT , row+4) == DIO_u8LOW)
    2348:	8f 85       	ldd	r24, Y+15	; 0x0f
    234a:	98 2f       	mov	r25, r24
    234c:	9c 5f       	subi	r25, 0xFC	; 252
    234e:	80 e0       	ldi	r24, 0x00	; 0
    2350:	69 2f       	mov	r22, r25
    2352:	0e 94 ee 0e 	call	0x1ddc	; 0x1ddc <DIO_u8GetPinValue>
    2356:	88 23       	and	r24, r24
    2358:	09 f0       	breq	.+2      	; 0x235c <KPD_u8GetPressedKey3x3+0x7e>
    235a:	93 c0       	rjmp	.+294    	; 0x2482 <KPD_u8GetPressedKey3x3+0x1a4>
			{
				Local_u8PressedKey = Local_KeyArr[row][col];
    235c:	8f 85       	ldd	r24, Y+15	; 0x0f
    235e:	28 2f       	mov	r18, r24
    2360:	30 e0       	ldi	r19, 0x00	; 0
    2362:	88 89       	ldd	r24, Y+16	; 0x10
    2364:	48 2f       	mov	r20, r24
    2366:	50 e0       	ldi	r21, 0x00	; 0
    2368:	c9 01       	movw	r24, r18
    236a:	88 0f       	add	r24, r24
    236c:	99 1f       	adc	r25, r25
    236e:	82 0f       	add	r24, r18
    2370:	93 1f       	adc	r25, r19
    2372:	9e 01       	movw	r18, r28
    2374:	2f 5f       	subi	r18, 0xFF	; 255
    2376:	3f 4f       	sbci	r19, 0xFF	; 255
    2378:	82 0f       	add	r24, r18
    237a:	93 1f       	adc	r25, r19
    237c:	84 0f       	add	r24, r20
    237e:	95 1f       	adc	r25, r21
    2380:	fc 01       	movw	r30, r24
    2382:	71 96       	adiw	r30, 0x11	; 17
    2384:	80 81       	ld	r24, Z
    2386:	89 8b       	std	Y+17, r24	; 0x11
    2388:	80 e0       	ldi	r24, 0x00	; 0
    238a:	90 e0       	ldi	r25, 0x00	; 0
    238c:	a0 e0       	ldi	r26, 0x00	; 0
    238e:	b0 e4       	ldi	r27, 0x40	; 64
    2390:	8b 87       	std	Y+11, r24	; 0x0b
    2392:	9c 87       	std	Y+12, r25	; 0x0c
    2394:	ad 87       	std	Y+13, r26	; 0x0d
    2396:	be 87       	std	Y+14, r27	; 0x0e
 */
void
_delay_ms(double __ms)
{
	uint16_t __ticks;
	double __tmp = ((F_CPU) / 4e3) * __ms;
    2398:	6b 85       	ldd	r22, Y+11	; 0x0b
    239a:	7c 85       	ldd	r23, Y+12	; 0x0c
    239c:	8d 85       	ldd	r24, Y+13	; 0x0d
    239e:	9e 85       	ldd	r25, Y+14	; 0x0e
    23a0:	20 e0       	ldi	r18, 0x00	; 0
    23a2:	30 e0       	ldi	r19, 0x00	; 0
    23a4:	4a ef       	ldi	r20, 0xFA	; 250
    23a6:	54 e4       	ldi	r21, 0x44	; 68
    23a8:	0e 94 1f 02 	call	0x43e	; 0x43e <__mulsf3>
    23ac:	dc 01       	movw	r26, r24
    23ae:	cb 01       	movw	r24, r22
    23b0:	8f 83       	std	Y+7, r24	; 0x07
    23b2:	98 87       	std	Y+8, r25	; 0x08
    23b4:	a9 87       	std	Y+9, r26	; 0x09
    23b6:	ba 87       	std	Y+10, r27	; 0x0a
	if (__tmp < 1.0)
    23b8:	6f 81       	ldd	r22, Y+7	; 0x07
    23ba:	78 85       	ldd	r23, Y+8	; 0x08
    23bc:	89 85       	ldd	r24, Y+9	; 0x09
    23be:	9a 85       	ldd	r25, Y+10	; 0x0a
    23c0:	20 e0       	ldi	r18, 0x00	; 0
    23c2:	30 e0       	ldi	r19, 0x00	; 0
    23c4:	40 e8       	ldi	r20, 0x80	; 128
    23c6:	5f e3       	ldi	r21, 0x3F	; 63
    23c8:	0e 94 79 03 	call	0x6f2	; 0x6f2 <__ltsf2>
    23cc:	88 23       	and	r24, r24
    23ce:	2c f4       	brge	.+10     	; 0x23da <KPD_u8GetPressedKey3x3+0xfc>
		__ticks = 1;
    23d0:	81 e0       	ldi	r24, 0x01	; 1
    23d2:	90 e0       	ldi	r25, 0x00	; 0
    23d4:	9e 83       	std	Y+6, r25	; 0x06
    23d6:	8d 83       	std	Y+5, r24	; 0x05
    23d8:	3f c0       	rjmp	.+126    	; 0x2458 <KPD_u8GetPressedKey3x3+0x17a>
	else if (__tmp > 65535)
    23da:	6f 81       	ldd	r22, Y+7	; 0x07
    23dc:	78 85       	ldd	r23, Y+8	; 0x08
    23de:	89 85       	ldd	r24, Y+9	; 0x09
    23e0:	9a 85       	ldd	r25, Y+10	; 0x0a
    23e2:	20 e0       	ldi	r18, 0x00	; 0
    23e4:	3f ef       	ldi	r19, 0xFF	; 255
    23e6:	4f e7       	ldi	r20, 0x7F	; 127
    23e8:	57 e4       	ldi	r21, 0x47	; 71
    23ea:	0e 94 19 03 	call	0x632	; 0x632 <__gtsf2>
    23ee:	18 16       	cp	r1, r24
    23f0:	4c f5       	brge	.+82     	; 0x2444 <KPD_u8GetPressedKey3x3+0x166>
	{
		//	__ticks = requested delay in 1/10 ms
		__ticks = (uint16_t) (__ms * 10.0);
    23f2:	6b 85       	ldd	r22, Y+11	; 0x0b
    23f4:	7c 85       	ldd	r23, Y+12	; 0x0c
    23f6:	8d 85       	ldd	r24, Y+13	; 0x0d
    23f8:	9e 85       	ldd	r25, Y+14	; 0x0e
    23fa:	20 e0       	ldi	r18, 0x00	; 0
    23fc:	30 e0       	ldi	r19, 0x00	; 0
    23fe:	40 e2       	ldi	r20, 0x20	; 32
    2400:	51 e4       	ldi	r21, 0x41	; 65
    2402:	0e 94 1f 02 	call	0x43e	; 0x43e <__mulsf3>
    2406:	dc 01       	movw	r26, r24
    2408:	cb 01       	movw	r24, r22
    240a:	bc 01       	movw	r22, r24
    240c:	cd 01       	movw	r24, r26
    240e:	0e 94 49 00 	call	0x92	; 0x92 <__fixunssfsi>
    2412:	dc 01       	movw	r26, r24
    2414:	cb 01       	movw	r24, r22
    2416:	9e 83       	std	Y+6, r25	; 0x06
    2418:	8d 83       	std	Y+5, r24	; 0x05
    241a:	0f c0       	rjmp	.+30     	; 0x243a <KPD_u8GetPressedKey3x3+0x15c>
    241c:	88 ec       	ldi	r24, 0xC8	; 200
    241e:	90 e0       	ldi	r25, 0x00	; 0
    2420:	9c 83       	std	Y+4, r25	; 0x04
    2422:	8b 83       	std	Y+3, r24	; 0x03
    2424:	8b 81       	ldd	r24, Y+3	; 0x03
    2426:	9c 81       	ldd	r25, Y+4	; 0x04
    2428:	01 97       	sbiw	r24, 0x01	; 1
    242a:	f1 f7       	brne	.-4      	; 0x2428 <KPD_u8GetPressedKey3x3+0x14a>
    242c:	9c 83       	std	Y+4, r25	; 0x04
    242e:	8b 83       	std	Y+3, r24	; 0x03
		while(__ticks)
		{
			// wait 1/10 ms
			_delay_loop_2(((F_CPU) / 4e3) / 10);
			__ticks --;
    2430:	8d 81       	ldd	r24, Y+5	; 0x05
    2432:	9e 81       	ldd	r25, Y+6	; 0x06
    2434:	01 97       	sbiw	r24, 0x01	; 1
    2436:	9e 83       	std	Y+6, r25	; 0x06
    2438:	8d 83       	std	Y+5, r24	; 0x05
		__ticks = 1;
	else if (__tmp > 65535)
	{
		//	__ticks = requested delay in 1/10 ms
		__ticks = (uint16_t) (__ms * 10.0);
		while(__ticks)
    243a:	8d 81       	ldd	r24, Y+5	; 0x05
    243c:	9e 81       	ldd	r25, Y+6	; 0x06
    243e:	00 97       	sbiw	r24, 0x00	; 0
    2440:	69 f7       	brne	.-38     	; 0x241c <KPD_u8GetPressedKey3x3+0x13e>
    2442:	16 c0       	rjmp	.+44     	; 0x2470 <KPD_u8GetPressedKey3x3+0x192>
			__ticks --;
		}
		return;
	}
	else
		__ticks = (uint16_t)__tmp;
    2444:	6f 81       	ldd	r22, Y+7	; 0x07
    2446:	78 85       	ldd	r23, Y+8	; 0x08
    2448:	89 85       	ldd	r24, Y+9	; 0x09
    244a:	9a 85       	ldd	r25, Y+10	; 0x0a
    244c:	0e 94 49 00 	call	0x92	; 0x92 <__fixunssfsi>
    2450:	dc 01       	movw	r26, r24
    2452:	cb 01       	movw	r24, r22
    2454:	9e 83       	std	Y+6, r25	; 0x06
    2456:	8d 83       	std	Y+5, r24	; 0x05
    2458:	8d 81       	ldd	r24, Y+5	; 0x05
    245a:	9e 81       	ldd	r25, Y+6	; 0x06
    245c:	9a 83       	std	Y+2, r25	; 0x02
    245e:	89 83       	std	Y+1, r24	; 0x01
    2460:	89 81       	ldd	r24, Y+1	; 0x01
    2462:	9a 81       	ldd	r25, Y+2	; 0x02
    2464:	01 97       	sbiw	r24, 0x01	; 1
    2466:	f1 f7       	brne	.-4      	; 0x2464 <KPD_u8GetPressedKey3x3+0x186>
    2468:	9a 83       	std	Y+2, r25	; 0x02
    246a:	89 83       	std	Y+1, r24	; 0x01
    246c:	01 c0       	rjmp	.+2      	; 0x2470 <KPD_u8GetPressedKey3x3+0x192>
				_delay_ms(2);

				while(DIO_u8GetPinValue(KPD_PORT , row+4) == DIO_u8LOW)
				{
					asm("NOP");
    246e:	00 00       	nop
			if(DIO_u8GetPinValue(KPD_PORT , row+4) == DIO_u8LOW)
			{
				Local_u8PressedKey = Local_KeyArr[row][col];
				_delay_ms(2);

				while(DIO_u8GetPinValue(KPD_PORT , row+4) == DIO_u8LOW)
    2470:	8f 85       	ldd	r24, Y+15	; 0x0f
    2472:	98 2f       	mov	r25, r24
    2474:	9c 5f       	subi	r25, 0xFC	; 252
    2476:	80 e0       	ldi	r24, 0x00	; 0
    2478:	69 2f       	mov	r22, r25
    247a:	0e 94 ee 0e 	call	0x1ddc	; 0x1ddc <DIO_u8GetPinValue>
    247e:	88 23       	and	r24, r24
    2480:	b1 f3       	breq	.-20     	; 0x246e <KPD_u8GetPressedKey3x3+0x190>
						   };
	for(u8 col=0 ; col<3 ; col++)
	{
		DIO_voidSetPinValue(KPD_PORT , col , DIO_u8LOW);

		for(u8 row=0 ; row<3 ; row++)
    2482:	8f 85       	ldd	r24, Y+15	; 0x0f
    2484:	8f 5f       	subi	r24, 0xFF	; 255
    2486:	8f 87       	std	Y+15, r24	; 0x0f
    2488:	8f 85       	ldd	r24, Y+15	; 0x0f
    248a:	83 30       	cpi	r24, 0x03	; 3
    248c:	08 f4       	brcc	.+2      	; 0x2490 <KPD_u8GetPressedKey3x3+0x1b2>
    248e:	5c cf       	rjmp	.-328    	; 0x2348 <KPD_u8GetPressedKey3x3+0x6a>
				{
					asm("NOP");
				}
			}
		}
		DIO_voidSetPinValue(KPD_PORT , col , DIO_u8HIGH);
    2490:	80 e0       	ldi	r24, 0x00	; 0
    2492:	68 89       	ldd	r22, Y+16	; 0x10
    2494:	41 e0       	ldi	r20, 0x01	; 1
    2496:	0e 94 ee 0d 	call	0x1bdc	; 0x1bdc <DIO_voidSetPinValue>
	u8 Local_KeyArr[3][3]={
							{3,2,1},
							{9,8,7},
							{6,5,4},
						   };
	for(u8 col=0 ; col<3 ; col++)
    249a:	88 89       	ldd	r24, Y+16	; 0x10
    249c:	8f 5f       	subi	r24, 0xFF	; 255
    249e:	88 8b       	std	Y+16, r24	; 0x10
    24a0:	88 89       	ldd	r24, Y+16	; 0x10
    24a2:	83 30       	cpi	r24, 0x03	; 3
    24a4:	08 f4       	brcc	.+2      	; 0x24a8 <KPD_u8GetPressedKey3x3+0x1ca>
    24a6:	49 cf       	rjmp	.-366    	; 0x233a <KPD_u8GetPressedKey3x3+0x5c>
				}
			}
		}
		DIO_voidSetPinValue(KPD_PORT , col , DIO_u8HIGH);
	}
	return Local_u8PressedKey;
    24a8:	89 89       	ldd	r24, Y+17	; 0x11
}
    24aa:	6f 96       	adiw	r28, 0x1f	; 31
    24ac:	0f b6       	in	r0, 0x3f	; 63
    24ae:	f8 94       	cli
    24b0:	de bf       	out	0x3e, r29	; 62
    24b2:	0f be       	out	0x3f, r0	; 63
    24b4:	cd bf       	out	0x3d, r28	; 61
    24b6:	cf 91       	pop	r28
    24b8:	df 91       	pop	r29
    24ba:	08 95       	ret

000024bc <main>:
#include "UART_interface.h"
#include "util/delay.h"
#include "CLCD_Interface.h"

int main(void)
{
    24bc:	df 93       	push	r29
    24be:	cf 93       	push	r28
    24c0:	0f 92       	push	r0
    24c2:	cd b7       	in	r28, 0x3d	; 61
    24c4:	de b7       	in	r29, 0x3e	; 62
	u8 CompareValue=0;
    24c6:	19 82       	std	Y+1, r1	; 0x01
	//PWM PIN3
	DIO_voidSetPinDirection(DIO_u8PORTB , DIO_u8PIN3 , DIO_u8OUTPUT);
    24c8:	81 e0       	ldi	r24, 0x01	; 1
    24ca:	63 e0       	ldi	r22, 0x03	; 3
    24cc:	41 e0       	ldi	r20, 0x01	; 1
    24ce:	0e 94 ee 0c 	call	0x19dc	; 0x19dc <DIO_voidSetPinDirection>

	//TX Pin
	DIO_voidSetPinDirection(DIO_u8PORTA , DIO_u8PIN1 , DIO_u8OUTPUT );
    24d2:	80 e0       	ldi	r24, 0x00	; 0
    24d4:	61 e0       	ldi	r22, 0x01	; 1
    24d6:	41 e0       	ldi	r20, 0x01	; 1
    24d8:	0e 94 ee 0c 	call	0x19dc	; 0x19dc <DIO_voidSetPinDirection>

	//RX Pin
	DIO_voidSetPinDirection(DIO_u8PORTA , DIO_u8PIN0 , DIO_u8INPUT );
    24dc:	80 e0       	ldi	r24, 0x00	; 0
    24de:	60 e0       	ldi	r22, 0x00	; 0
    24e0:	40 e0       	ldi	r20, 0x00	; 0
    24e2:	0e 94 ee 0c 	call	0x19dc	; 0x19dc <DIO_voidSetPinDirection>


	UART_voidInit();
    24e6:	0e 94 0d 13 	call	0x261a	; 0x261a <UART_voidInit>
	CLCD_voidInit();
    24ea:	0e 94 8c 07 	call	0xf18	; 0xf18 <CLCD_voidInit>
	TIMER0_voidInit();
    24ee:	0e 94 8d 12 	call	0x251a	; 0x251a <TIMER0_voidInit>

	while(1)
	{
		CompareValue = UART_u8ReceiveData();
    24f2:	0e 94 66 13 	call	0x26cc	; 0x26cc <UART_u8ReceiveData>
    24f6:	89 83       	std	Y+1, r24	; 0x01

		TIMER0_voidSetCompareValue(CompareValue);
    24f8:	89 81       	ldd	r24, Y+1	; 0x01
    24fa:	88 2f       	mov	r24, r24
    24fc:	90 e0       	ldi	r25, 0x00	; 0
    24fe:	0e 94 be 12 	call	0x257c	; 0x257c <TIMER0_voidSetCompareValue>

		CLCD_voidClearDisplay();
    2502:	0e 94 a4 0b 	call	0x1748	; 0x1748 <CLCD_voidClearDisplay>
		CLCD_voidSendInteger(CompareValue);
    2506:	89 81       	ldd	r24, Y+1	; 0x01
    2508:	88 2f       	mov	r24, r24
    250a:	90 e0       	ldi	r25, 0x00	; 0
    250c:	a0 e0       	ldi	r26, 0x00	; 0
    250e:	b0 e0       	ldi	r27, 0x00	; 0
    2510:	bc 01       	movw	r22, r24
    2512:	cd 01       	movw	r24, r26
    2514:	0e 94 56 08 	call	0x10ac	; 0x10ac <CLCD_voidSendInteger>
    2518:	ec cf       	rjmp	.-40     	; 0x24f2 <main+0x36>

0000251a <TIMER0_voidInit>:
#include "TIMER0_register.h"

void (*TIMER0_CallBackFn)(void);

void TIMER0_voidInit(void)
{
    251a:	df 93       	push	r29
    251c:	cf 93       	push	r28
    251e:	cd b7       	in	r28, 0x3d	; 61
    2520:	de b7       	in	r29, 0x3e	; 62
	SET_BIT(TCCR0 , 6);
#elif (TIMER0_MODE == CTC_MODE)
	SET_BIT(TCCR0 , 3);
	CLR_BIT(TCCR0 , 6);
#elif (TIMER0_MODE == FAST_MODE)
	SET_BIT(TCCR0 , 3);
    2522:	a3 e5       	ldi	r26, 0x53	; 83
    2524:	b0 e0       	ldi	r27, 0x00	; 0
    2526:	e3 e5       	ldi	r30, 0x53	; 83
    2528:	f0 e0       	ldi	r31, 0x00	; 0
    252a:	80 81       	ld	r24, Z
    252c:	88 60       	ori	r24, 0x08	; 8
    252e:	8c 93       	st	X, r24
	SET_BIT(TCCR0 , 6);
    2530:	a3 e5       	ldi	r26, 0x53	; 83
    2532:	b0 e0       	ldi	r27, 0x00	; 0
    2534:	e3 e5       	ldi	r30, 0x53	; 83
    2536:	f0 e0       	ldi	r31, 0x00	; 0
    2538:	80 81       	ld	r24, Z
    253a:	80 64       	ori	r24, 0x40	; 64
    253c:	8c 93       	st	X, r24
	{
		TCCR0 &= 0b11001111;
	}
#elif(COM0_MODE == Clear_On_COM)
	{
		TCCR0 &= 0b11001111;
    253e:	a3 e5       	ldi	r26, 0x53	; 83
    2540:	b0 e0       	ldi	r27, 0x00	; 0
    2542:	e3 e5       	ldi	r30, 0x53	; 83
    2544:	f0 e0       	ldi	r31, 0x00	; 0
    2546:	80 81       	ld	r24, Z
    2548:	8f 7c       	andi	r24, 0xCF	; 207
    254a:	8c 93       	st	X, r24
		TCCR0 |= Clear_COM0_Bits;
    254c:	a3 e5       	ldi	r26, 0x53	; 83
    254e:	b0 e0       	ldi	r27, 0x00	; 0
    2550:	e3 e5       	ldi	r30, 0x53	; 83
    2552:	f0 e0       	ldi	r31, 0x00	; 0
    2554:	80 81       	ld	r24, Z
    2556:	80 62       	ori	r24, 0x20	; 32
    2558:	8c 93       	st	X, r24
		TCCR0 &= 0b11001111;
		TCCR0 |= Set_COM1A_Bits;
	}
#endif
	//Select the prescaler
	TCCR0 &=0b11111000;
    255a:	a3 e5       	ldi	r26, 0x53	; 83
    255c:	b0 e0       	ldi	r27, 0x00	; 0
    255e:	e3 e5       	ldi	r30, 0x53	; 83
    2560:	f0 e0       	ldi	r31, 0x00	; 0
    2562:	80 81       	ld	r24, Z
    2564:	88 7f       	andi	r24, 0xF8	; 248
    2566:	8c 93       	st	X, r24
	TCCR0 |= PRESCALER;
    2568:	a3 e5       	ldi	r26, 0x53	; 83
    256a:	b0 e0       	ldi	r27, 0x00	; 0
    256c:	e3 e5       	ldi	r30, 0x53	; 83
    256e:	f0 e0       	ldi	r31, 0x00	; 0
    2570:	80 81       	ld	r24, Z
    2572:	82 60       	ori	r24, 0x02	; 2
    2574:	8c 93       	st	X, r24
	SET_BIT(TIMSK , 0);
#elif (TIMER0_MODE == CTC_MODE)
	SET_BIT(TIMSK , 1);
#endif

}
    2576:	cf 91       	pop	r28
    2578:	df 91       	pop	r29
    257a:	08 95       	ret

0000257c <TIMER0_voidSetCompareValue>:


void TIMER0_voidSetCompareValue(u16 Copy_u8CompareValue)
{
    257c:	df 93       	push	r29
    257e:	cf 93       	push	r28
    2580:	00 d0       	rcall	.+0      	; 0x2582 <TIMER0_voidSetCompareValue+0x6>
    2582:	cd b7       	in	r28, 0x3d	; 61
    2584:	de b7       	in	r29, 0x3e	; 62
    2586:	9a 83       	std	Y+2, r25	; 0x02
    2588:	89 83       	std	Y+1, r24	; 0x01
	OCR0 = Copy_u8CompareValue;
    258a:	ec e5       	ldi	r30, 0x5C	; 92
    258c:	f0 e0       	ldi	r31, 0x00	; 0
    258e:	89 81       	ldd	r24, Y+1	; 0x01
    2590:	80 83       	st	Z, r24
}
    2592:	0f 90       	pop	r0
    2594:	0f 90       	pop	r0
    2596:	cf 91       	pop	r28
    2598:	df 91       	pop	r29
    259a:	08 95       	ret

0000259c <TIMER0_voidSetCallBack>:

void TIMER0_voidSetCallBack(void (*Copy_pvCallBackFn)(void))
{
    259c:	df 93       	push	r29
    259e:	cf 93       	push	r28
    25a0:	00 d0       	rcall	.+0      	; 0x25a2 <TIMER0_voidSetCallBack+0x6>
    25a2:	cd b7       	in	r28, 0x3d	; 61
    25a4:	de b7       	in	r29, 0x3e	; 62
    25a6:	9a 83       	std	Y+2, r25	; 0x02
    25a8:	89 83       	std	Y+1, r24	; 0x01
	TIMER0_CallBackFn = Copy_pvCallBackFn;
    25aa:	89 81       	ldd	r24, Y+1	; 0x01
    25ac:	9a 81       	ldd	r25, Y+2	; 0x02
    25ae:	90 93 93 01 	sts	0x0193, r25
    25b2:	80 93 92 01 	sts	0x0192, r24
}
    25b6:	0f 90       	pop	r0
    25b8:	0f 90       	pop	r0
    25ba:	cf 91       	pop	r28
    25bc:	df 91       	pop	r29
    25be:	08 95       	ret

000025c0 <__vector_10>:

void __vector_10(void) __attribute__((signal));
void __vector_10(void)
{
    25c0:	1f 92       	push	r1
    25c2:	0f 92       	push	r0
    25c4:	0f b6       	in	r0, 0x3f	; 63
    25c6:	0f 92       	push	r0
    25c8:	11 24       	eor	r1, r1
    25ca:	2f 93       	push	r18
    25cc:	3f 93       	push	r19
    25ce:	4f 93       	push	r20
    25d0:	5f 93       	push	r21
    25d2:	6f 93       	push	r22
    25d4:	7f 93       	push	r23
    25d6:	8f 93       	push	r24
    25d8:	9f 93       	push	r25
    25da:	af 93       	push	r26
    25dc:	bf 93       	push	r27
    25de:	ef 93       	push	r30
    25e0:	ff 93       	push	r31
    25e2:	df 93       	push	r29
    25e4:	cf 93       	push	r28
    25e6:	cd b7       	in	r28, 0x3d	; 61
    25e8:	de b7       	in	r29, 0x3e	; 62
	TIMER0_CallBackFn();
    25ea:	e0 91 92 01 	lds	r30, 0x0192
    25ee:	f0 91 93 01 	lds	r31, 0x0193
    25f2:	09 95       	icall
}
    25f4:	cf 91       	pop	r28
    25f6:	df 91       	pop	r29
    25f8:	ff 91       	pop	r31
    25fa:	ef 91       	pop	r30
    25fc:	bf 91       	pop	r27
    25fe:	af 91       	pop	r26
    2600:	9f 91       	pop	r25
    2602:	8f 91       	pop	r24
    2604:	7f 91       	pop	r23
    2606:	6f 91       	pop	r22
    2608:	5f 91       	pop	r21
    260a:	4f 91       	pop	r20
    260c:	3f 91       	pop	r19
    260e:	2f 91       	pop	r18
    2610:	0f 90       	pop	r0
    2612:	0f be       	out	0x3f, r0	; 63
    2614:	0f 90       	pop	r0
    2616:	1f 90       	pop	r1
    2618:	18 95       	reti

0000261a <UART_voidInit>:
#include "UART_interface.h"
#include "UART_private.h"
#include "UART_register.h"

void UART_voidInit(void)
{
    261a:	df 93       	push	r29
    261c:	cf 93       	push	r28
    261e:	0f 92       	push	r0
    2620:	cd b7       	in	r28, 0x3d	; 61
    2622:	de b7       	in	r29, 0x3e	; 62
	u8 Local_8uUCSRC = 0b10000110;
    2624:	86 e8       	ldi	r24, 0x86	; 134
    2626:	89 83       	std	Y+1, r24	; 0x01
	//Register Select
	SET_BIT(Local_8uUCSRC , 7);
    2628:	89 81       	ldd	r24, Y+1	; 0x01
    262a:	80 68       	ori	r24, 0x80	; 128
    262c:	89 83       	std	Y+1, r24	; 0x01

	//Select Asynchronous mode
	CLR_BIT(Local_8uUCSRC , 6);
    262e:	89 81       	ldd	r24, Y+1	; 0x01
    2630:	8f 7b       	andi	r24, 0xBF	; 191
    2632:	89 83       	std	Y+1, r24	; 0x01

	//Select Parity mode Even
	SET_BIT(Local_8uUCSRC , 5);
    2634:	89 81       	ldd	r24, Y+1	; 0x01
    2636:	80 62       	ori	r24, 0x20	; 32
    2638:	89 83       	std	Y+1, r24	; 0x01
	CLR_BIT(Local_8uUCSRC , 4);
    263a:	89 81       	ldd	r24, Y+1	; 0x01
    263c:	8f 7e       	andi	r24, 0xEF	; 239
    263e:	89 83       	std	Y+1, r24	; 0x01

	//Select one Stop Bit
	CLR_BIT(Local_8uUCSRC , 3);
    2640:	89 81       	ldd	r24, Y+1	; 0x01
    2642:	87 7f       	andi	r24, 0xF7	; 247
    2644:	89 83       	std	Y+1, r24	; 0x01

	//Select Character Size 8 Bits
	CLR_BIT(UCSRB , 2);
    2646:	aa e2       	ldi	r26, 0x2A	; 42
    2648:	b0 e0       	ldi	r27, 0x00	; 0
    264a:	ea e2       	ldi	r30, 0x2A	; 42
    264c:	f0 e0       	ldi	r31, 0x00	; 0
    264e:	80 81       	ld	r24, Z
    2650:	8b 7f       	andi	r24, 0xFB	; 251
    2652:	8c 93       	st	X, r24
	SET_BIT(Local_8uUCSRC , 1);
    2654:	89 81       	ldd	r24, Y+1	; 0x01
    2656:	82 60       	ori	r24, 0x02	; 2
    2658:	89 83       	std	Y+1, r24	; 0x01
	SET_BIT(Local_8uUCSRC , 2);
    265a:	89 81       	ldd	r24, Y+1	; 0x01
    265c:	84 60       	ori	r24, 0x04	; 4
    265e:	89 83       	std	Y+1, r24	; 0x01

	UCSRC = Local_8uUCSRC;
    2660:	e0 e4       	ldi	r30, 0x40	; 64
    2662:	f0 e0       	ldi	r31, 0x00	; 0
    2664:	89 81       	ldd	r24, Y+1	; 0x01
    2666:	80 83       	st	Z, r24

	//Select Baur Rate
	UBRRL = 51;
    2668:	e9 e2       	ldi	r30, 0x29	; 41
    266a:	f0 e0       	ldi	r31, 0x00	; 0
    266c:	83 e3       	ldi	r24, 0x33	; 51
    266e:	80 83       	st	Z, r24

	//Enable Transmitter & Receiver
	SET_BIT(UCSRB , 4);
    2670:	aa e2       	ldi	r26, 0x2A	; 42
    2672:	b0 e0       	ldi	r27, 0x00	; 0
    2674:	ea e2       	ldi	r30, 0x2A	; 42
    2676:	f0 e0       	ldi	r31, 0x00	; 0
    2678:	80 81       	ld	r24, Z
    267a:	80 61       	ori	r24, 0x10	; 16
    267c:	8c 93       	st	X, r24
	SET_BIT(UCSRB , 3);
    267e:	aa e2       	ldi	r26, 0x2A	; 42
    2680:	b0 e0       	ldi	r27, 0x00	; 0
    2682:	ea e2       	ldi	r30, 0x2A	; 42
    2684:	f0 e0       	ldi	r31, 0x00	; 0
    2686:	80 81       	ld	r24, Z
    2688:	88 60       	ori	r24, 0x08	; 8
    268a:	8c 93       	st	X, r24
}
    268c:	0f 90       	pop	r0
    268e:	cf 91       	pop	r28
    2690:	df 91       	pop	r29
    2692:	08 95       	ret

00002694 <UART_voidSendData>:

void UART_voidSendData(u8 Copy_u8Data)
{
    2694:	df 93       	push	r29
    2696:	cf 93       	push	r28
    2698:	0f 92       	push	r0
    269a:	cd b7       	in	r28, 0x3d	; 61
    269c:	de b7       	in	r29, 0x3e	; 62
    269e:	89 83       	std	Y+1, r24	; 0x01
    26a0:	01 c0       	rjmp	.+2      	; 0x26a4 <UART_voidSendData+0x10>
	while((GET_BIT(UCSRA , 5)) != 1)    //check if data register empty this bit will be 1
	{
		asm("NOP");
    26a2:	00 00       	nop
	SET_BIT(UCSRB , 3);
}

void UART_voidSendData(u8 Copy_u8Data)
{
	while((GET_BIT(UCSRA , 5)) != 1)    //check if data register empty this bit will be 1
    26a4:	eb e2       	ldi	r30, 0x2B	; 43
    26a6:	f0 e0       	ldi	r31, 0x00	; 0
    26a8:	80 81       	ld	r24, Z
    26aa:	82 95       	swap	r24
    26ac:	86 95       	lsr	r24
    26ae:	87 70       	andi	r24, 0x07	; 7
    26b0:	88 2f       	mov	r24, r24
    26b2:	90 e0       	ldi	r25, 0x00	; 0
    26b4:	81 70       	andi	r24, 0x01	; 1
    26b6:	90 70       	andi	r25, 0x00	; 0
    26b8:	00 97       	sbiw	r24, 0x00	; 0
    26ba:	99 f3       	breq	.-26     	; 0x26a2 <UART_voidSendData+0xe>
	{
		asm("NOP");
	}
	UDR = Copy_u8Data;
    26bc:	ec e2       	ldi	r30, 0x2C	; 44
    26be:	f0 e0       	ldi	r31, 0x00	; 0
    26c0:	89 81       	ldd	r24, Y+1	; 0x01
    26c2:	80 83       	st	Z, r24
}
    26c4:	0f 90       	pop	r0
    26c6:	cf 91       	pop	r28
    26c8:	df 91       	pop	r29
    26ca:	08 95       	ret

000026cc <UART_u8ReceiveData>:

u8	UART_u8ReceiveData(void)
{
    26cc:	df 93       	push	r29
    26ce:	cf 93       	push	r28
    26d0:	cd b7       	in	r28, 0x3d	; 61
    26d2:	de b7       	in	r29, 0x3e	; 62
    26d4:	01 c0       	rjmp	.+2      	; 0x26d8 <UART_u8ReceiveData+0xc>
	while((GET_BIT(UCSRA , 7)) != 1)    //check if Receive complete this bit will be 1
	{
		asm("NOP");
    26d6:	00 00       	nop
	UDR = Copy_u8Data;
}

u8	UART_u8ReceiveData(void)
{
	while((GET_BIT(UCSRA , 7)) != 1)    //check if Receive complete this bit will be 1
    26d8:	eb e2       	ldi	r30, 0x2B	; 43
    26da:	f0 e0       	ldi	r31, 0x00	; 0
    26dc:	80 81       	ld	r24, Z
    26de:	88 1f       	adc	r24, r24
    26e0:	88 27       	eor	r24, r24
    26e2:	88 1f       	adc	r24, r24
    26e4:	81 30       	cpi	r24, 0x01	; 1
    26e6:	b9 f7       	brne	.-18     	; 0x26d6 <UART_u8ReceiveData+0xa>
	{
		asm("NOP");
	}
	return UDR;
    26e8:	ec e2       	ldi	r30, 0x2C	; 44
    26ea:	f0 e0       	ldi	r31, 0x00	; 0
    26ec:	80 81       	ld	r24, Z
}
    26ee:	cf 91       	pop	r28
    26f0:	df 91       	pop	r29
    26f2:	08 95       	ret

000026f4 <__udivmodsi4>:
    26f4:	a1 e2       	ldi	r26, 0x21	; 33
    26f6:	1a 2e       	mov	r1, r26
    26f8:	aa 1b       	sub	r26, r26
    26fa:	bb 1b       	sub	r27, r27
    26fc:	fd 01       	movw	r30, r26
    26fe:	0d c0       	rjmp	.+26     	; 0x271a <__udivmodsi4_ep>

00002700 <__udivmodsi4_loop>:
    2700:	aa 1f       	adc	r26, r26
    2702:	bb 1f       	adc	r27, r27
    2704:	ee 1f       	adc	r30, r30
    2706:	ff 1f       	adc	r31, r31
    2708:	a2 17       	cp	r26, r18
    270a:	b3 07       	cpc	r27, r19
    270c:	e4 07       	cpc	r30, r20
    270e:	f5 07       	cpc	r31, r21
    2710:	20 f0       	brcs	.+8      	; 0x271a <__udivmodsi4_ep>
    2712:	a2 1b       	sub	r26, r18
    2714:	b3 0b       	sbc	r27, r19
    2716:	e4 0b       	sbc	r30, r20
    2718:	f5 0b       	sbc	r31, r21

0000271a <__udivmodsi4_ep>:
    271a:	66 1f       	adc	r22, r22
    271c:	77 1f       	adc	r23, r23
    271e:	88 1f       	adc	r24, r24
    2720:	99 1f       	adc	r25, r25
    2722:	1a 94       	dec	r1
    2724:	69 f7       	brne	.-38     	; 0x2700 <__udivmodsi4_loop>
    2726:	60 95       	com	r22
    2728:	70 95       	com	r23
    272a:	80 95       	com	r24
    272c:	90 95       	com	r25
    272e:	9b 01       	movw	r18, r22
    2730:	ac 01       	movw	r20, r24
    2732:	bd 01       	movw	r22, r26
    2734:	cf 01       	movw	r24, r30
    2736:	08 95       	ret

00002738 <__prologue_saves__>:
    2738:	2f 92       	push	r2
    273a:	3f 92       	push	r3
    273c:	4f 92       	push	r4
    273e:	5f 92       	push	r5
    2740:	6f 92       	push	r6
    2742:	7f 92       	push	r7
    2744:	8f 92       	push	r8
    2746:	9f 92       	push	r9
    2748:	af 92       	push	r10
    274a:	bf 92       	push	r11
    274c:	cf 92       	push	r12
    274e:	df 92       	push	r13
    2750:	ef 92       	push	r14
    2752:	ff 92       	push	r15
    2754:	0f 93       	push	r16
    2756:	1f 93       	push	r17
    2758:	cf 93       	push	r28
    275a:	df 93       	push	r29
    275c:	cd b7       	in	r28, 0x3d	; 61
    275e:	de b7       	in	r29, 0x3e	; 62
    2760:	ca 1b       	sub	r28, r26
    2762:	db 0b       	sbc	r29, r27
    2764:	0f b6       	in	r0, 0x3f	; 63
    2766:	f8 94       	cli
    2768:	de bf       	out	0x3e, r29	; 62
    276a:	0f be       	out	0x3f, r0	; 63
    276c:	cd bf       	out	0x3d, r28	; 61
    276e:	09 94       	ijmp

00002770 <__epilogue_restores__>:
    2770:	2a 88       	ldd	r2, Y+18	; 0x12
    2772:	39 88       	ldd	r3, Y+17	; 0x11
    2774:	48 88       	ldd	r4, Y+16	; 0x10
    2776:	5f 84       	ldd	r5, Y+15	; 0x0f
    2778:	6e 84       	ldd	r6, Y+14	; 0x0e
    277a:	7d 84       	ldd	r7, Y+13	; 0x0d
    277c:	8c 84       	ldd	r8, Y+12	; 0x0c
    277e:	9b 84       	ldd	r9, Y+11	; 0x0b
    2780:	aa 84       	ldd	r10, Y+10	; 0x0a
    2782:	b9 84       	ldd	r11, Y+9	; 0x09
    2784:	c8 84       	ldd	r12, Y+8	; 0x08
    2786:	df 80       	ldd	r13, Y+7	; 0x07
    2788:	ee 80       	ldd	r14, Y+6	; 0x06
    278a:	fd 80       	ldd	r15, Y+5	; 0x05
    278c:	0c 81       	ldd	r16, Y+4	; 0x04
    278e:	1b 81       	ldd	r17, Y+3	; 0x03
    2790:	aa 81       	ldd	r26, Y+2	; 0x02
    2792:	b9 81       	ldd	r27, Y+1	; 0x01
    2794:	ce 0f       	add	r28, r30
    2796:	d1 1d       	adc	r29, r1
    2798:	0f b6       	in	r0, 0x3f	; 63
    279a:	f8 94       	cli
    279c:	de bf       	out	0x3e, r29	; 62
    279e:	0f be       	out	0x3f, r0	; 63
    27a0:	cd bf       	out	0x3d, r28	; 61
    27a2:	ed 01       	movw	r28, r26
    27a4:	08 95       	ret

000027a6 <sprintf>:
    27a6:	ae e0       	ldi	r26, 0x0E	; 14
    27a8:	b0 e0       	ldi	r27, 0x00	; 0
    27aa:	e9 ed       	ldi	r30, 0xD9	; 217
    27ac:	f3 e1       	ldi	r31, 0x13	; 19
    27ae:	0c 94 aa 13 	jmp	0x2754	; 0x2754 <__prologue_saves__+0x1c>
    27b2:	0d 89       	ldd	r16, Y+21	; 0x15
    27b4:	1e 89       	ldd	r17, Y+22	; 0x16
    27b6:	86 e0       	ldi	r24, 0x06	; 6
    27b8:	8c 83       	std	Y+4, r24	; 0x04
    27ba:	1a 83       	std	Y+2, r17	; 0x02
    27bc:	09 83       	std	Y+1, r16	; 0x01
    27be:	8f ef       	ldi	r24, 0xFF	; 255
    27c0:	9f e7       	ldi	r25, 0x7F	; 127
    27c2:	9e 83       	std	Y+6, r25	; 0x06
    27c4:	8d 83       	std	Y+5, r24	; 0x05
    27c6:	9e 01       	movw	r18, r28
    27c8:	27 5e       	subi	r18, 0xE7	; 231
    27ca:	3f 4f       	sbci	r19, 0xFF	; 255
    27cc:	ce 01       	movw	r24, r28
    27ce:	01 96       	adiw	r24, 0x01	; 1
    27d0:	6f 89       	ldd	r22, Y+23	; 0x17
    27d2:	78 8d       	ldd	r23, Y+24	; 0x18
    27d4:	a9 01       	movw	r20, r18
    27d6:	0e 94 f7 13 	call	0x27ee	; 0x27ee <vfprintf>
    27da:	2f 81       	ldd	r18, Y+7	; 0x07
    27dc:	38 85       	ldd	r19, Y+8	; 0x08
    27de:	02 0f       	add	r16, r18
    27e0:	13 1f       	adc	r17, r19
    27e2:	f8 01       	movw	r30, r16
    27e4:	10 82       	st	Z, r1
    27e6:	2e 96       	adiw	r28, 0x0e	; 14
    27e8:	e4 e0       	ldi	r30, 0x04	; 4
    27ea:	0c 94 c6 13 	jmp	0x278c	; 0x278c <__epilogue_restores__+0x1c>

000027ee <vfprintf>:
    27ee:	ab e0       	ldi	r26, 0x0B	; 11
    27f0:	b0 e0       	ldi	r27, 0x00	; 0
    27f2:	ed ef       	ldi	r30, 0xFD	; 253
    27f4:	f3 e1       	ldi	r31, 0x13	; 19
    27f6:	0c 94 9c 13 	jmp	0x2738	; 0x2738 <__prologue_saves__>
    27fa:	3c 01       	movw	r6, r24
    27fc:	2b 01       	movw	r4, r22
    27fe:	5a 01       	movw	r10, r20
    2800:	fc 01       	movw	r30, r24
    2802:	17 82       	std	Z+7, r1	; 0x07
    2804:	16 82       	std	Z+6, r1	; 0x06
    2806:	83 81       	ldd	r24, Z+3	; 0x03
    2808:	81 fd       	sbrc	r24, 1
    280a:	03 c0       	rjmp	.+6      	; 0x2812 <vfprintf+0x24>
    280c:	6f ef       	ldi	r22, 0xFF	; 255
    280e:	7f ef       	ldi	r23, 0xFF	; 255
    2810:	c6 c1       	rjmp	.+908    	; 0x2b9e <vfprintf+0x3b0>
    2812:	9a e0       	ldi	r25, 0x0A	; 10
    2814:	89 2e       	mov	r8, r25
    2816:	1e 01       	movw	r2, r28
    2818:	08 94       	sec
    281a:	21 1c       	adc	r2, r1
    281c:	31 1c       	adc	r3, r1
    281e:	f3 01       	movw	r30, r6
    2820:	23 81       	ldd	r18, Z+3	; 0x03
    2822:	f2 01       	movw	r30, r4
    2824:	23 fd       	sbrc	r18, 3
    2826:	85 91       	lpm	r24, Z+
    2828:	23 ff       	sbrs	r18, 3
    282a:	81 91       	ld	r24, Z+
    282c:	2f 01       	movw	r4, r30
    282e:	88 23       	and	r24, r24
    2830:	09 f4       	brne	.+2      	; 0x2834 <vfprintf+0x46>
    2832:	b2 c1       	rjmp	.+868    	; 0x2b98 <vfprintf+0x3aa>
    2834:	85 32       	cpi	r24, 0x25	; 37
    2836:	39 f4       	brne	.+14     	; 0x2846 <vfprintf+0x58>
    2838:	23 fd       	sbrc	r18, 3
    283a:	85 91       	lpm	r24, Z+
    283c:	23 ff       	sbrs	r18, 3
    283e:	81 91       	ld	r24, Z+
    2840:	2f 01       	movw	r4, r30
    2842:	85 32       	cpi	r24, 0x25	; 37
    2844:	29 f4       	brne	.+10     	; 0x2850 <vfprintf+0x62>
    2846:	90 e0       	ldi	r25, 0x00	; 0
    2848:	b3 01       	movw	r22, r6
    284a:	0e 94 ea 15 	call	0x2bd4	; 0x2bd4 <fputc>
    284e:	e7 cf       	rjmp	.-50     	; 0x281e <vfprintf+0x30>
    2850:	98 2f       	mov	r25, r24
    2852:	ff 24       	eor	r15, r15
    2854:	ee 24       	eor	r14, r14
    2856:	99 24       	eor	r9, r9
    2858:	ff e1       	ldi	r31, 0x1F	; 31
    285a:	ff 15       	cp	r31, r15
    285c:	d0 f0       	brcs	.+52     	; 0x2892 <vfprintf+0xa4>
    285e:	9b 32       	cpi	r25, 0x2B	; 43
    2860:	69 f0       	breq	.+26     	; 0x287c <vfprintf+0x8e>
    2862:	9c 32       	cpi	r25, 0x2C	; 44
    2864:	28 f4       	brcc	.+10     	; 0x2870 <vfprintf+0x82>
    2866:	90 32       	cpi	r25, 0x20	; 32
    2868:	59 f0       	breq	.+22     	; 0x2880 <vfprintf+0x92>
    286a:	93 32       	cpi	r25, 0x23	; 35
    286c:	91 f4       	brne	.+36     	; 0x2892 <vfprintf+0xa4>
    286e:	0e c0       	rjmp	.+28     	; 0x288c <vfprintf+0x9e>
    2870:	9d 32       	cpi	r25, 0x2D	; 45
    2872:	49 f0       	breq	.+18     	; 0x2886 <vfprintf+0x98>
    2874:	90 33       	cpi	r25, 0x30	; 48
    2876:	69 f4       	brne	.+26     	; 0x2892 <vfprintf+0xa4>
    2878:	41 e0       	ldi	r20, 0x01	; 1
    287a:	24 c0       	rjmp	.+72     	; 0x28c4 <vfprintf+0xd6>
    287c:	52 e0       	ldi	r21, 0x02	; 2
    287e:	f5 2a       	or	r15, r21
    2880:	84 e0       	ldi	r24, 0x04	; 4
    2882:	f8 2a       	or	r15, r24
    2884:	28 c0       	rjmp	.+80     	; 0x28d6 <vfprintf+0xe8>
    2886:	98 e0       	ldi	r25, 0x08	; 8
    2888:	f9 2a       	or	r15, r25
    288a:	25 c0       	rjmp	.+74     	; 0x28d6 <vfprintf+0xe8>
    288c:	e0 e1       	ldi	r30, 0x10	; 16
    288e:	fe 2a       	or	r15, r30
    2890:	22 c0       	rjmp	.+68     	; 0x28d6 <vfprintf+0xe8>
    2892:	f7 fc       	sbrc	r15, 7
    2894:	29 c0       	rjmp	.+82     	; 0x28e8 <vfprintf+0xfa>
    2896:	89 2f       	mov	r24, r25
    2898:	80 53       	subi	r24, 0x30	; 48
    289a:	8a 30       	cpi	r24, 0x0A	; 10
    289c:	70 f4       	brcc	.+28     	; 0x28ba <vfprintf+0xcc>
    289e:	f6 fe       	sbrs	r15, 6
    28a0:	05 c0       	rjmp	.+10     	; 0x28ac <vfprintf+0xbe>
    28a2:	98 9c       	mul	r9, r8
    28a4:	90 2c       	mov	r9, r0
    28a6:	11 24       	eor	r1, r1
    28a8:	98 0e       	add	r9, r24
    28aa:	15 c0       	rjmp	.+42     	; 0x28d6 <vfprintf+0xe8>
    28ac:	e8 9c       	mul	r14, r8
    28ae:	e0 2c       	mov	r14, r0
    28b0:	11 24       	eor	r1, r1
    28b2:	e8 0e       	add	r14, r24
    28b4:	f0 e2       	ldi	r31, 0x20	; 32
    28b6:	ff 2a       	or	r15, r31
    28b8:	0e c0       	rjmp	.+28     	; 0x28d6 <vfprintf+0xe8>
    28ba:	9e 32       	cpi	r25, 0x2E	; 46
    28bc:	29 f4       	brne	.+10     	; 0x28c8 <vfprintf+0xda>
    28be:	f6 fc       	sbrc	r15, 6
    28c0:	6b c1       	rjmp	.+726    	; 0x2b98 <vfprintf+0x3aa>
    28c2:	40 e4       	ldi	r20, 0x40	; 64
    28c4:	f4 2a       	or	r15, r20
    28c6:	07 c0       	rjmp	.+14     	; 0x28d6 <vfprintf+0xe8>
    28c8:	9c 36       	cpi	r25, 0x6C	; 108
    28ca:	19 f4       	brne	.+6      	; 0x28d2 <vfprintf+0xe4>
    28cc:	50 e8       	ldi	r21, 0x80	; 128
    28ce:	f5 2a       	or	r15, r21
    28d0:	02 c0       	rjmp	.+4      	; 0x28d6 <vfprintf+0xe8>
    28d2:	98 36       	cpi	r25, 0x68	; 104
    28d4:	49 f4       	brne	.+18     	; 0x28e8 <vfprintf+0xfa>
    28d6:	f2 01       	movw	r30, r4
    28d8:	23 fd       	sbrc	r18, 3
    28da:	95 91       	lpm	r25, Z+
    28dc:	23 ff       	sbrs	r18, 3
    28de:	91 91       	ld	r25, Z+
    28e0:	2f 01       	movw	r4, r30
    28e2:	99 23       	and	r25, r25
    28e4:	09 f0       	breq	.+2      	; 0x28e8 <vfprintf+0xfa>
    28e6:	b8 cf       	rjmp	.-144    	; 0x2858 <vfprintf+0x6a>
    28e8:	89 2f       	mov	r24, r25
    28ea:	85 54       	subi	r24, 0x45	; 69
    28ec:	83 30       	cpi	r24, 0x03	; 3
    28ee:	18 f0       	brcs	.+6      	; 0x28f6 <vfprintf+0x108>
    28f0:	80 52       	subi	r24, 0x20	; 32
    28f2:	83 30       	cpi	r24, 0x03	; 3
    28f4:	38 f4       	brcc	.+14     	; 0x2904 <vfprintf+0x116>
    28f6:	44 e0       	ldi	r20, 0x04	; 4
    28f8:	50 e0       	ldi	r21, 0x00	; 0
    28fa:	a4 0e       	add	r10, r20
    28fc:	b5 1e       	adc	r11, r21
    28fe:	5f e3       	ldi	r21, 0x3F	; 63
    2900:	59 83       	std	Y+1, r21	; 0x01
    2902:	0f c0       	rjmp	.+30     	; 0x2922 <vfprintf+0x134>
    2904:	93 36       	cpi	r25, 0x63	; 99
    2906:	31 f0       	breq	.+12     	; 0x2914 <vfprintf+0x126>
    2908:	93 37       	cpi	r25, 0x73	; 115
    290a:	79 f0       	breq	.+30     	; 0x292a <vfprintf+0x13c>
    290c:	93 35       	cpi	r25, 0x53	; 83
    290e:	09 f0       	breq	.+2      	; 0x2912 <vfprintf+0x124>
    2910:	56 c0       	rjmp	.+172    	; 0x29be <vfprintf+0x1d0>
    2912:	20 c0       	rjmp	.+64     	; 0x2954 <vfprintf+0x166>
    2914:	f5 01       	movw	r30, r10
    2916:	80 81       	ld	r24, Z
    2918:	89 83       	std	Y+1, r24	; 0x01
    291a:	42 e0       	ldi	r20, 0x02	; 2
    291c:	50 e0       	ldi	r21, 0x00	; 0
    291e:	a4 0e       	add	r10, r20
    2920:	b5 1e       	adc	r11, r21
    2922:	61 01       	movw	r12, r2
    2924:	01 e0       	ldi	r16, 0x01	; 1
    2926:	10 e0       	ldi	r17, 0x00	; 0
    2928:	12 c0       	rjmp	.+36     	; 0x294e <vfprintf+0x160>
    292a:	f5 01       	movw	r30, r10
    292c:	c0 80       	ld	r12, Z
    292e:	d1 80       	ldd	r13, Z+1	; 0x01
    2930:	f6 fc       	sbrc	r15, 6
    2932:	03 c0       	rjmp	.+6      	; 0x293a <vfprintf+0x14c>
    2934:	6f ef       	ldi	r22, 0xFF	; 255
    2936:	7f ef       	ldi	r23, 0xFF	; 255
    2938:	02 c0       	rjmp	.+4      	; 0x293e <vfprintf+0x150>
    293a:	69 2d       	mov	r22, r9
    293c:	70 e0       	ldi	r23, 0x00	; 0
    293e:	42 e0       	ldi	r20, 0x02	; 2
    2940:	50 e0       	ldi	r21, 0x00	; 0
    2942:	a4 0e       	add	r10, r20
    2944:	b5 1e       	adc	r11, r21
    2946:	c6 01       	movw	r24, r12
    2948:	0e 94 df 15 	call	0x2bbe	; 0x2bbe <strnlen>
    294c:	8c 01       	movw	r16, r24
    294e:	5f e7       	ldi	r21, 0x7F	; 127
    2950:	f5 22       	and	r15, r21
    2952:	14 c0       	rjmp	.+40     	; 0x297c <vfprintf+0x18e>
    2954:	f5 01       	movw	r30, r10
    2956:	c0 80       	ld	r12, Z
    2958:	d1 80       	ldd	r13, Z+1	; 0x01
    295a:	f6 fc       	sbrc	r15, 6
    295c:	03 c0       	rjmp	.+6      	; 0x2964 <vfprintf+0x176>
    295e:	6f ef       	ldi	r22, 0xFF	; 255
    2960:	7f ef       	ldi	r23, 0xFF	; 255
    2962:	02 c0       	rjmp	.+4      	; 0x2968 <vfprintf+0x17a>
    2964:	69 2d       	mov	r22, r9
    2966:	70 e0       	ldi	r23, 0x00	; 0
    2968:	42 e0       	ldi	r20, 0x02	; 2
    296a:	50 e0       	ldi	r21, 0x00	; 0
    296c:	a4 0e       	add	r10, r20
    296e:	b5 1e       	adc	r11, r21
    2970:	c6 01       	movw	r24, r12
    2972:	0e 94 d4 15 	call	0x2ba8	; 0x2ba8 <strnlen_P>
    2976:	8c 01       	movw	r16, r24
    2978:	50 e8       	ldi	r21, 0x80	; 128
    297a:	f5 2a       	or	r15, r21
    297c:	f3 fe       	sbrs	r15, 3
    297e:	07 c0       	rjmp	.+14     	; 0x298e <vfprintf+0x1a0>
    2980:	1a c0       	rjmp	.+52     	; 0x29b6 <vfprintf+0x1c8>
    2982:	80 e2       	ldi	r24, 0x20	; 32
    2984:	90 e0       	ldi	r25, 0x00	; 0
    2986:	b3 01       	movw	r22, r6
    2988:	0e 94 ea 15 	call	0x2bd4	; 0x2bd4 <fputc>
    298c:	ea 94       	dec	r14
    298e:	8e 2d       	mov	r24, r14
    2990:	90 e0       	ldi	r25, 0x00	; 0
    2992:	08 17       	cp	r16, r24
    2994:	19 07       	cpc	r17, r25
    2996:	a8 f3       	brcs	.-22     	; 0x2982 <vfprintf+0x194>
    2998:	0e c0       	rjmp	.+28     	; 0x29b6 <vfprintf+0x1c8>
    299a:	f6 01       	movw	r30, r12
    299c:	f7 fc       	sbrc	r15, 7
    299e:	85 91       	lpm	r24, Z+
    29a0:	f7 fe       	sbrs	r15, 7
    29a2:	81 91       	ld	r24, Z+
    29a4:	6f 01       	movw	r12, r30
    29a6:	90 e0       	ldi	r25, 0x00	; 0
    29a8:	b3 01       	movw	r22, r6
    29aa:	0e 94 ea 15 	call	0x2bd4	; 0x2bd4 <fputc>
    29ae:	e1 10       	cpse	r14, r1
    29b0:	ea 94       	dec	r14
    29b2:	01 50       	subi	r16, 0x01	; 1
    29b4:	10 40       	sbci	r17, 0x00	; 0
    29b6:	01 15       	cp	r16, r1
    29b8:	11 05       	cpc	r17, r1
    29ba:	79 f7       	brne	.-34     	; 0x299a <vfprintf+0x1ac>
    29bc:	ea c0       	rjmp	.+468    	; 0x2b92 <vfprintf+0x3a4>
    29be:	94 36       	cpi	r25, 0x64	; 100
    29c0:	11 f0       	breq	.+4      	; 0x29c6 <vfprintf+0x1d8>
    29c2:	99 36       	cpi	r25, 0x69	; 105
    29c4:	69 f5       	brne	.+90     	; 0x2a20 <vfprintf+0x232>
    29c6:	f7 fe       	sbrs	r15, 7
    29c8:	08 c0       	rjmp	.+16     	; 0x29da <vfprintf+0x1ec>
    29ca:	f5 01       	movw	r30, r10
    29cc:	20 81       	ld	r18, Z
    29ce:	31 81       	ldd	r19, Z+1	; 0x01
    29d0:	42 81       	ldd	r20, Z+2	; 0x02
    29d2:	53 81       	ldd	r21, Z+3	; 0x03
    29d4:	84 e0       	ldi	r24, 0x04	; 4
    29d6:	90 e0       	ldi	r25, 0x00	; 0
    29d8:	0a c0       	rjmp	.+20     	; 0x29ee <vfprintf+0x200>
    29da:	f5 01       	movw	r30, r10
    29dc:	80 81       	ld	r24, Z
    29de:	91 81       	ldd	r25, Z+1	; 0x01
    29e0:	9c 01       	movw	r18, r24
    29e2:	44 27       	eor	r20, r20
    29e4:	37 fd       	sbrc	r19, 7
    29e6:	40 95       	com	r20
    29e8:	54 2f       	mov	r21, r20
    29ea:	82 e0       	ldi	r24, 0x02	; 2
    29ec:	90 e0       	ldi	r25, 0x00	; 0
    29ee:	a8 0e       	add	r10, r24
    29f0:	b9 1e       	adc	r11, r25
    29f2:	9f e6       	ldi	r25, 0x6F	; 111
    29f4:	f9 22       	and	r15, r25
    29f6:	57 ff       	sbrs	r21, 7
    29f8:	09 c0       	rjmp	.+18     	; 0x2a0c <vfprintf+0x21e>
    29fa:	50 95       	com	r21
    29fc:	40 95       	com	r20
    29fe:	30 95       	com	r19
    2a00:	21 95       	neg	r18
    2a02:	3f 4f       	sbci	r19, 0xFF	; 255
    2a04:	4f 4f       	sbci	r20, 0xFF	; 255
    2a06:	5f 4f       	sbci	r21, 0xFF	; 255
    2a08:	e0 e8       	ldi	r30, 0x80	; 128
    2a0a:	fe 2a       	or	r15, r30
    2a0c:	ca 01       	movw	r24, r20
    2a0e:	b9 01       	movw	r22, r18
    2a10:	a1 01       	movw	r20, r2
    2a12:	2a e0       	ldi	r18, 0x0A	; 10
    2a14:	30 e0       	ldi	r19, 0x00	; 0
    2a16:	0e 94 16 16 	call	0x2c2c	; 0x2c2c <__ultoa_invert>
    2a1a:	d8 2e       	mov	r13, r24
    2a1c:	d2 18       	sub	r13, r2
    2a1e:	40 c0       	rjmp	.+128    	; 0x2aa0 <vfprintf+0x2b2>
    2a20:	95 37       	cpi	r25, 0x75	; 117
    2a22:	29 f4       	brne	.+10     	; 0x2a2e <vfprintf+0x240>
    2a24:	1f 2d       	mov	r17, r15
    2a26:	1f 7e       	andi	r17, 0xEF	; 239
    2a28:	2a e0       	ldi	r18, 0x0A	; 10
    2a2a:	30 e0       	ldi	r19, 0x00	; 0
    2a2c:	1d c0       	rjmp	.+58     	; 0x2a68 <vfprintf+0x27a>
    2a2e:	1f 2d       	mov	r17, r15
    2a30:	19 7f       	andi	r17, 0xF9	; 249
    2a32:	9f 36       	cpi	r25, 0x6F	; 111
    2a34:	61 f0       	breq	.+24     	; 0x2a4e <vfprintf+0x260>
    2a36:	90 37       	cpi	r25, 0x70	; 112
    2a38:	20 f4       	brcc	.+8      	; 0x2a42 <vfprintf+0x254>
    2a3a:	98 35       	cpi	r25, 0x58	; 88
    2a3c:	09 f0       	breq	.+2      	; 0x2a40 <vfprintf+0x252>
    2a3e:	ac c0       	rjmp	.+344    	; 0x2b98 <vfprintf+0x3aa>
    2a40:	0f c0       	rjmp	.+30     	; 0x2a60 <vfprintf+0x272>
    2a42:	90 37       	cpi	r25, 0x70	; 112
    2a44:	39 f0       	breq	.+14     	; 0x2a54 <vfprintf+0x266>
    2a46:	98 37       	cpi	r25, 0x78	; 120
    2a48:	09 f0       	breq	.+2      	; 0x2a4c <vfprintf+0x25e>
    2a4a:	a6 c0       	rjmp	.+332    	; 0x2b98 <vfprintf+0x3aa>
    2a4c:	04 c0       	rjmp	.+8      	; 0x2a56 <vfprintf+0x268>
    2a4e:	28 e0       	ldi	r18, 0x08	; 8
    2a50:	30 e0       	ldi	r19, 0x00	; 0
    2a52:	0a c0       	rjmp	.+20     	; 0x2a68 <vfprintf+0x27a>
    2a54:	10 61       	ori	r17, 0x10	; 16
    2a56:	14 fd       	sbrc	r17, 4
    2a58:	14 60       	ori	r17, 0x04	; 4
    2a5a:	20 e1       	ldi	r18, 0x10	; 16
    2a5c:	30 e0       	ldi	r19, 0x00	; 0
    2a5e:	04 c0       	rjmp	.+8      	; 0x2a68 <vfprintf+0x27a>
    2a60:	14 fd       	sbrc	r17, 4
    2a62:	16 60       	ori	r17, 0x06	; 6
    2a64:	20 e1       	ldi	r18, 0x10	; 16
    2a66:	32 e0       	ldi	r19, 0x02	; 2
    2a68:	17 ff       	sbrs	r17, 7
    2a6a:	08 c0       	rjmp	.+16     	; 0x2a7c <vfprintf+0x28e>
    2a6c:	f5 01       	movw	r30, r10
    2a6e:	60 81       	ld	r22, Z
    2a70:	71 81       	ldd	r23, Z+1	; 0x01
    2a72:	82 81       	ldd	r24, Z+2	; 0x02
    2a74:	93 81       	ldd	r25, Z+3	; 0x03
    2a76:	44 e0       	ldi	r20, 0x04	; 4
    2a78:	50 e0       	ldi	r21, 0x00	; 0
    2a7a:	08 c0       	rjmp	.+16     	; 0x2a8c <vfprintf+0x29e>
    2a7c:	f5 01       	movw	r30, r10
    2a7e:	80 81       	ld	r24, Z
    2a80:	91 81       	ldd	r25, Z+1	; 0x01
    2a82:	bc 01       	movw	r22, r24
    2a84:	80 e0       	ldi	r24, 0x00	; 0
    2a86:	90 e0       	ldi	r25, 0x00	; 0
    2a88:	42 e0       	ldi	r20, 0x02	; 2
    2a8a:	50 e0       	ldi	r21, 0x00	; 0
    2a8c:	a4 0e       	add	r10, r20
    2a8e:	b5 1e       	adc	r11, r21
    2a90:	a1 01       	movw	r20, r2
    2a92:	0e 94 16 16 	call	0x2c2c	; 0x2c2c <__ultoa_invert>
    2a96:	d8 2e       	mov	r13, r24
    2a98:	d2 18       	sub	r13, r2
    2a9a:	8f e7       	ldi	r24, 0x7F	; 127
    2a9c:	f8 2e       	mov	r15, r24
    2a9e:	f1 22       	and	r15, r17
    2aa0:	f6 fe       	sbrs	r15, 6
    2aa2:	0b c0       	rjmp	.+22     	; 0x2aba <vfprintf+0x2cc>
    2aa4:	5e ef       	ldi	r21, 0xFE	; 254
    2aa6:	f5 22       	and	r15, r21
    2aa8:	d9 14       	cp	r13, r9
    2aaa:	38 f4       	brcc	.+14     	; 0x2aba <vfprintf+0x2cc>
    2aac:	f4 fe       	sbrs	r15, 4
    2aae:	07 c0       	rjmp	.+14     	; 0x2abe <vfprintf+0x2d0>
    2ab0:	f2 fc       	sbrc	r15, 2
    2ab2:	05 c0       	rjmp	.+10     	; 0x2abe <vfprintf+0x2d0>
    2ab4:	8f ee       	ldi	r24, 0xEF	; 239
    2ab6:	f8 22       	and	r15, r24
    2ab8:	02 c0       	rjmp	.+4      	; 0x2abe <vfprintf+0x2d0>
    2aba:	1d 2d       	mov	r17, r13
    2abc:	01 c0       	rjmp	.+2      	; 0x2ac0 <vfprintf+0x2d2>
    2abe:	19 2d       	mov	r17, r9
    2ac0:	f4 fe       	sbrs	r15, 4
    2ac2:	0d c0       	rjmp	.+26     	; 0x2ade <vfprintf+0x2f0>
    2ac4:	fe 01       	movw	r30, r28
    2ac6:	ed 0d       	add	r30, r13
    2ac8:	f1 1d       	adc	r31, r1
    2aca:	80 81       	ld	r24, Z
    2acc:	80 33       	cpi	r24, 0x30	; 48
    2ace:	19 f4       	brne	.+6      	; 0x2ad6 <vfprintf+0x2e8>
    2ad0:	99 ee       	ldi	r25, 0xE9	; 233
    2ad2:	f9 22       	and	r15, r25
    2ad4:	08 c0       	rjmp	.+16     	; 0x2ae6 <vfprintf+0x2f8>
    2ad6:	1f 5f       	subi	r17, 0xFF	; 255
    2ad8:	f2 fe       	sbrs	r15, 2
    2ada:	05 c0       	rjmp	.+10     	; 0x2ae6 <vfprintf+0x2f8>
    2adc:	03 c0       	rjmp	.+6      	; 0x2ae4 <vfprintf+0x2f6>
    2ade:	8f 2d       	mov	r24, r15
    2ae0:	86 78       	andi	r24, 0x86	; 134
    2ae2:	09 f0       	breq	.+2      	; 0x2ae6 <vfprintf+0x2f8>
    2ae4:	1f 5f       	subi	r17, 0xFF	; 255
    2ae6:	0f 2d       	mov	r16, r15
    2ae8:	f3 fc       	sbrc	r15, 3
    2aea:	14 c0       	rjmp	.+40     	; 0x2b14 <vfprintf+0x326>
    2aec:	f0 fe       	sbrs	r15, 0
    2aee:	0f c0       	rjmp	.+30     	; 0x2b0e <vfprintf+0x320>
    2af0:	1e 15       	cp	r17, r14
    2af2:	10 f0       	brcs	.+4      	; 0x2af8 <vfprintf+0x30a>
    2af4:	9d 2c       	mov	r9, r13
    2af6:	0b c0       	rjmp	.+22     	; 0x2b0e <vfprintf+0x320>
    2af8:	9d 2c       	mov	r9, r13
    2afa:	9e 0c       	add	r9, r14
    2afc:	91 1a       	sub	r9, r17
    2afe:	1e 2d       	mov	r17, r14
    2b00:	06 c0       	rjmp	.+12     	; 0x2b0e <vfprintf+0x320>
    2b02:	80 e2       	ldi	r24, 0x20	; 32
    2b04:	90 e0       	ldi	r25, 0x00	; 0
    2b06:	b3 01       	movw	r22, r6
    2b08:	0e 94 ea 15 	call	0x2bd4	; 0x2bd4 <fputc>
    2b0c:	1f 5f       	subi	r17, 0xFF	; 255
    2b0e:	1e 15       	cp	r17, r14
    2b10:	c0 f3       	brcs	.-16     	; 0x2b02 <vfprintf+0x314>
    2b12:	04 c0       	rjmp	.+8      	; 0x2b1c <vfprintf+0x32e>
    2b14:	1e 15       	cp	r17, r14
    2b16:	10 f4       	brcc	.+4      	; 0x2b1c <vfprintf+0x32e>
    2b18:	e1 1a       	sub	r14, r17
    2b1a:	01 c0       	rjmp	.+2      	; 0x2b1e <vfprintf+0x330>
    2b1c:	ee 24       	eor	r14, r14
    2b1e:	04 ff       	sbrs	r16, 4
    2b20:	0f c0       	rjmp	.+30     	; 0x2b40 <vfprintf+0x352>
    2b22:	80 e3       	ldi	r24, 0x30	; 48
    2b24:	90 e0       	ldi	r25, 0x00	; 0
    2b26:	b3 01       	movw	r22, r6
    2b28:	0e 94 ea 15 	call	0x2bd4	; 0x2bd4 <fputc>
    2b2c:	02 ff       	sbrs	r16, 2
    2b2e:	1d c0       	rjmp	.+58     	; 0x2b6a <vfprintf+0x37c>
    2b30:	01 fd       	sbrc	r16, 1
    2b32:	03 c0       	rjmp	.+6      	; 0x2b3a <vfprintf+0x34c>
    2b34:	88 e7       	ldi	r24, 0x78	; 120
    2b36:	90 e0       	ldi	r25, 0x00	; 0
    2b38:	0e c0       	rjmp	.+28     	; 0x2b56 <vfprintf+0x368>
    2b3a:	88 e5       	ldi	r24, 0x58	; 88
    2b3c:	90 e0       	ldi	r25, 0x00	; 0
    2b3e:	0b c0       	rjmp	.+22     	; 0x2b56 <vfprintf+0x368>
    2b40:	80 2f       	mov	r24, r16
    2b42:	86 78       	andi	r24, 0x86	; 134
    2b44:	91 f0       	breq	.+36     	; 0x2b6a <vfprintf+0x37c>
    2b46:	01 ff       	sbrs	r16, 1
    2b48:	02 c0       	rjmp	.+4      	; 0x2b4e <vfprintf+0x360>
    2b4a:	8b e2       	ldi	r24, 0x2B	; 43
    2b4c:	01 c0       	rjmp	.+2      	; 0x2b50 <vfprintf+0x362>
    2b4e:	80 e2       	ldi	r24, 0x20	; 32
    2b50:	f7 fc       	sbrc	r15, 7
    2b52:	8d e2       	ldi	r24, 0x2D	; 45
    2b54:	90 e0       	ldi	r25, 0x00	; 0
    2b56:	b3 01       	movw	r22, r6
    2b58:	0e 94 ea 15 	call	0x2bd4	; 0x2bd4 <fputc>
    2b5c:	06 c0       	rjmp	.+12     	; 0x2b6a <vfprintf+0x37c>
    2b5e:	80 e3       	ldi	r24, 0x30	; 48
    2b60:	90 e0       	ldi	r25, 0x00	; 0
    2b62:	b3 01       	movw	r22, r6
    2b64:	0e 94 ea 15 	call	0x2bd4	; 0x2bd4 <fputc>
    2b68:	9a 94       	dec	r9
    2b6a:	d9 14       	cp	r13, r9
    2b6c:	c0 f3       	brcs	.-16     	; 0x2b5e <vfprintf+0x370>
    2b6e:	da 94       	dec	r13
    2b70:	f1 01       	movw	r30, r2
    2b72:	ed 0d       	add	r30, r13
    2b74:	f1 1d       	adc	r31, r1
    2b76:	80 81       	ld	r24, Z
    2b78:	90 e0       	ldi	r25, 0x00	; 0
    2b7a:	b3 01       	movw	r22, r6
    2b7c:	0e 94 ea 15 	call	0x2bd4	; 0x2bd4 <fputc>
    2b80:	dd 20       	and	r13, r13
    2b82:	a9 f7       	brne	.-22     	; 0x2b6e <vfprintf+0x380>
    2b84:	06 c0       	rjmp	.+12     	; 0x2b92 <vfprintf+0x3a4>
    2b86:	80 e2       	ldi	r24, 0x20	; 32
    2b88:	90 e0       	ldi	r25, 0x00	; 0
    2b8a:	b3 01       	movw	r22, r6
    2b8c:	0e 94 ea 15 	call	0x2bd4	; 0x2bd4 <fputc>
    2b90:	ea 94       	dec	r14
    2b92:	ee 20       	and	r14, r14
    2b94:	c1 f7       	brne	.-16     	; 0x2b86 <vfprintf+0x398>
    2b96:	43 ce       	rjmp	.-890    	; 0x281e <vfprintf+0x30>
    2b98:	f3 01       	movw	r30, r6
    2b9a:	66 81       	ldd	r22, Z+6	; 0x06
    2b9c:	77 81       	ldd	r23, Z+7	; 0x07
    2b9e:	cb 01       	movw	r24, r22
    2ba0:	2b 96       	adiw	r28, 0x0b	; 11
    2ba2:	e2 e1       	ldi	r30, 0x12	; 18
    2ba4:	0c 94 b8 13 	jmp	0x2770	; 0x2770 <__epilogue_restores__>

00002ba8 <strnlen_P>:
    2ba8:	fc 01       	movw	r30, r24
    2baa:	05 90       	lpm	r0, Z+
    2bac:	61 50       	subi	r22, 0x01	; 1
    2bae:	70 40       	sbci	r23, 0x00	; 0
    2bb0:	01 10       	cpse	r0, r1
    2bb2:	d8 f7       	brcc	.-10     	; 0x2baa <strnlen_P+0x2>
    2bb4:	80 95       	com	r24
    2bb6:	90 95       	com	r25
    2bb8:	8e 0f       	add	r24, r30
    2bba:	9f 1f       	adc	r25, r31
    2bbc:	08 95       	ret

00002bbe <strnlen>:
    2bbe:	fc 01       	movw	r30, r24
    2bc0:	61 50       	subi	r22, 0x01	; 1
    2bc2:	70 40       	sbci	r23, 0x00	; 0
    2bc4:	01 90       	ld	r0, Z+
    2bc6:	01 10       	cpse	r0, r1
    2bc8:	d8 f7       	brcc	.-10     	; 0x2bc0 <strnlen+0x2>
    2bca:	80 95       	com	r24
    2bcc:	90 95       	com	r25
    2bce:	8e 0f       	add	r24, r30
    2bd0:	9f 1f       	adc	r25, r31
    2bd2:	08 95       	ret

00002bd4 <fputc>:
    2bd4:	0f 93       	push	r16
    2bd6:	1f 93       	push	r17
    2bd8:	cf 93       	push	r28
    2bda:	df 93       	push	r29
    2bdc:	8c 01       	movw	r16, r24
    2bde:	eb 01       	movw	r28, r22
    2be0:	8b 81       	ldd	r24, Y+3	; 0x03
    2be2:	81 ff       	sbrs	r24, 1
    2be4:	1b c0       	rjmp	.+54     	; 0x2c1c <fputc+0x48>
    2be6:	82 ff       	sbrs	r24, 2
    2be8:	0d c0       	rjmp	.+26     	; 0x2c04 <fputc+0x30>
    2bea:	2e 81       	ldd	r18, Y+6	; 0x06
    2bec:	3f 81       	ldd	r19, Y+7	; 0x07
    2bee:	8c 81       	ldd	r24, Y+4	; 0x04
    2bf0:	9d 81       	ldd	r25, Y+5	; 0x05
    2bf2:	28 17       	cp	r18, r24
    2bf4:	39 07       	cpc	r19, r25
    2bf6:	64 f4       	brge	.+24     	; 0x2c10 <fputc+0x3c>
    2bf8:	e8 81       	ld	r30, Y
    2bfa:	f9 81       	ldd	r31, Y+1	; 0x01
    2bfc:	01 93       	st	Z+, r16
    2bfe:	f9 83       	std	Y+1, r31	; 0x01
    2c00:	e8 83       	st	Y, r30
    2c02:	06 c0       	rjmp	.+12     	; 0x2c10 <fputc+0x3c>
    2c04:	e8 85       	ldd	r30, Y+8	; 0x08
    2c06:	f9 85       	ldd	r31, Y+9	; 0x09
    2c08:	80 2f       	mov	r24, r16
    2c0a:	09 95       	icall
    2c0c:	89 2b       	or	r24, r25
    2c0e:	31 f4       	brne	.+12     	; 0x2c1c <fputc+0x48>
    2c10:	8e 81       	ldd	r24, Y+6	; 0x06
    2c12:	9f 81       	ldd	r25, Y+7	; 0x07
    2c14:	01 96       	adiw	r24, 0x01	; 1
    2c16:	9f 83       	std	Y+7, r25	; 0x07
    2c18:	8e 83       	std	Y+6, r24	; 0x06
    2c1a:	02 c0       	rjmp	.+4      	; 0x2c20 <fputc+0x4c>
    2c1c:	0f ef       	ldi	r16, 0xFF	; 255
    2c1e:	1f ef       	ldi	r17, 0xFF	; 255
    2c20:	c8 01       	movw	r24, r16
    2c22:	df 91       	pop	r29
    2c24:	cf 91       	pop	r28
    2c26:	1f 91       	pop	r17
    2c28:	0f 91       	pop	r16
    2c2a:	08 95       	ret

00002c2c <__ultoa_invert>:
    2c2c:	fa 01       	movw	r30, r20
    2c2e:	aa 27       	eor	r26, r26
    2c30:	28 30       	cpi	r18, 0x08	; 8
    2c32:	51 f1       	breq	.+84     	; 0x2c88 <__ultoa_invert+0x5c>
    2c34:	20 31       	cpi	r18, 0x10	; 16
    2c36:	81 f1       	breq	.+96     	; 0x2c98 <__ultoa_invert+0x6c>
    2c38:	e8 94       	clt
    2c3a:	6f 93       	push	r22
    2c3c:	6e 7f       	andi	r22, 0xFE	; 254
    2c3e:	6e 5f       	subi	r22, 0xFE	; 254
    2c40:	7f 4f       	sbci	r23, 0xFF	; 255
    2c42:	8f 4f       	sbci	r24, 0xFF	; 255
    2c44:	9f 4f       	sbci	r25, 0xFF	; 255
    2c46:	af 4f       	sbci	r26, 0xFF	; 255
    2c48:	b1 e0       	ldi	r27, 0x01	; 1
    2c4a:	3e d0       	rcall	.+124    	; 0x2cc8 <__ultoa_invert+0x9c>
    2c4c:	b4 e0       	ldi	r27, 0x04	; 4
    2c4e:	3c d0       	rcall	.+120    	; 0x2cc8 <__ultoa_invert+0x9c>
    2c50:	67 0f       	add	r22, r23
    2c52:	78 1f       	adc	r23, r24
    2c54:	89 1f       	adc	r24, r25
    2c56:	9a 1f       	adc	r25, r26
    2c58:	a1 1d       	adc	r26, r1
    2c5a:	68 0f       	add	r22, r24
    2c5c:	79 1f       	adc	r23, r25
    2c5e:	8a 1f       	adc	r24, r26
    2c60:	91 1d       	adc	r25, r1
    2c62:	a1 1d       	adc	r26, r1
    2c64:	6a 0f       	add	r22, r26
    2c66:	71 1d       	adc	r23, r1
    2c68:	81 1d       	adc	r24, r1
    2c6a:	91 1d       	adc	r25, r1
    2c6c:	a1 1d       	adc	r26, r1
    2c6e:	20 d0       	rcall	.+64     	; 0x2cb0 <__ultoa_invert+0x84>
    2c70:	09 f4       	brne	.+2      	; 0x2c74 <__ultoa_invert+0x48>
    2c72:	68 94       	set
    2c74:	3f 91       	pop	r19
    2c76:	2a e0       	ldi	r18, 0x0A	; 10
    2c78:	26 9f       	mul	r18, r22
    2c7a:	11 24       	eor	r1, r1
    2c7c:	30 19       	sub	r19, r0
    2c7e:	30 5d       	subi	r19, 0xD0	; 208
    2c80:	31 93       	st	Z+, r19
    2c82:	de f6       	brtc	.-74     	; 0x2c3a <__ultoa_invert+0xe>
    2c84:	cf 01       	movw	r24, r30
    2c86:	08 95       	ret
    2c88:	46 2f       	mov	r20, r22
    2c8a:	47 70       	andi	r20, 0x07	; 7
    2c8c:	40 5d       	subi	r20, 0xD0	; 208
    2c8e:	41 93       	st	Z+, r20
    2c90:	b3 e0       	ldi	r27, 0x03	; 3
    2c92:	0f d0       	rcall	.+30     	; 0x2cb2 <__ultoa_invert+0x86>
    2c94:	c9 f7       	brne	.-14     	; 0x2c88 <__ultoa_invert+0x5c>
    2c96:	f6 cf       	rjmp	.-20     	; 0x2c84 <__ultoa_invert+0x58>
    2c98:	46 2f       	mov	r20, r22
    2c9a:	4f 70       	andi	r20, 0x0F	; 15
    2c9c:	40 5d       	subi	r20, 0xD0	; 208
    2c9e:	4a 33       	cpi	r20, 0x3A	; 58
    2ca0:	18 f0       	brcs	.+6      	; 0x2ca8 <__ultoa_invert+0x7c>
    2ca2:	49 5d       	subi	r20, 0xD9	; 217
    2ca4:	31 fd       	sbrc	r19, 1
    2ca6:	40 52       	subi	r20, 0x20	; 32
    2ca8:	41 93       	st	Z+, r20
    2caa:	02 d0       	rcall	.+4      	; 0x2cb0 <__ultoa_invert+0x84>
    2cac:	a9 f7       	brne	.-22     	; 0x2c98 <__ultoa_invert+0x6c>
    2cae:	ea cf       	rjmp	.-44     	; 0x2c84 <__ultoa_invert+0x58>
    2cb0:	b4 e0       	ldi	r27, 0x04	; 4
    2cb2:	a6 95       	lsr	r26
    2cb4:	97 95       	ror	r25
    2cb6:	87 95       	ror	r24
    2cb8:	77 95       	ror	r23
    2cba:	67 95       	ror	r22
    2cbc:	ba 95       	dec	r27
    2cbe:	c9 f7       	brne	.-14     	; 0x2cb2 <__ultoa_invert+0x86>
    2cc0:	00 97       	sbiw	r24, 0x00	; 0
    2cc2:	61 05       	cpc	r22, r1
    2cc4:	71 05       	cpc	r23, r1
    2cc6:	08 95       	ret
    2cc8:	9b 01       	movw	r18, r22
    2cca:	ac 01       	movw	r20, r24
    2ccc:	0a 2e       	mov	r0, r26
    2cce:	06 94       	lsr	r0
    2cd0:	57 95       	ror	r21
    2cd2:	47 95       	ror	r20
    2cd4:	37 95       	ror	r19
    2cd6:	27 95       	ror	r18
    2cd8:	ba 95       	dec	r27
    2cda:	c9 f7       	brne	.-14     	; 0x2cce <__ultoa_invert+0xa2>
    2cdc:	62 0f       	add	r22, r18
    2cde:	73 1f       	adc	r23, r19
    2ce0:	84 1f       	adc	r24, r20
    2ce2:	95 1f       	adc	r25, r21
    2ce4:	a0 1d       	adc	r26, r0
    2ce6:	08 95       	ret

00002ce8 <_exit>:
    2ce8:	f8 94       	cli

00002cea <__stop_program>:
    2cea:	ff cf       	rjmp	.-2      	; 0x2cea <__stop_program>
